ARM GAS  /cygdrive/c/Users/embedded/AppData/Local/Temp/cc2R7c4N.s 			page 1


   1              		.code	16
   2              		.file	"lcd.c"
   3              		.section	.debug_abbrev,"",%progbits
   4              	.Ldebug_abbrev0:
   5              		.section	.debug_info,"",%progbits
   6              	.Ldebug_info0:
   7              		.section	.debug_line,"",%progbits
   8              	.Ldebug_line0:
   9 0000 3B010000 		.text
   9      02003400 
   9      00000201 
   9      FB0E0D00 
   9      01010101 
  10              	.Ltext0:
  11              		.global	charMap
  12              		.section	.rodata
  13              		.type	charMap, %object
  14              		.size	charMap, 1372
  15              	charMap:
  16 0000 00       		.byte	0
  17 0001 00       		.byte	0
  18 0002 00       		.byte	0
  19 0003 80       		.byte	-128
  20 0004 C0       		.byte	-64
  21 0005 E0       		.byte	-32
  22 0006 F8       		.byte	-8
  23 0007 FE       		.byte	-2
  24 0008 F8       		.byte	-8
  25 0009 E0       		.byte	-32
  26 000a C0       		.byte	-64
  27 000b 80       		.byte	-128
  28 000c 00       		.byte	0
  29 000d 00       		.byte	0
  30 000e 00       		.byte	0
  31 000f 00       		.byte	0
  32 0010 00       		.byte	0
  33 0011 02       		.byte	2
  34 0012 06       		.byte	6
  35 0013 0E       		.byte	14
  36 0014 3E       		.byte	62
  37 0015 FE       		.byte	-2
  38 0016 3E       		.byte	62
  39 0017 0E       		.byte	14
  40 0018 06       		.byte	6
  41 0019 02       		.byte	2
  42 001a 00       		.byte	0
  43 001b 00       		.byte	0
  44 001c 00       		.byte	0
  45 001d 00       		.byte	0
  46 001e 00       		.byte	0
  47 001f 00       		.byte	0
  48 0020 00       		.byte	0
  49 0021 00       		.byte	0
  50 0022 00       		.byte	0
  51 0023 00       		.byte	0
  52 0024 00       		.byte	0
  53 0025 00       		.byte	0
ARM GAS  /cygdrive/c/Users/embedded/AppData/Local/Temp/cc2R7c4N.s 			page 2


  54 0026 00       		.byte	0
  55 0027 00       		.byte	0
  56 0028 00       		.byte	0
  57 0029 00       		.byte	0
  58 002a 00       		.byte	0
  59 002b 00       		.byte	0
  60 002c 00       		.byte	0
  61 002d 18       		.byte	24
  62 002e 3C       		.byte	60
  63 002f 3C       		.byte	60
  64 0030 3C       		.byte	60
  65 0031 18       		.byte	24
  66 0032 18       		.byte	24
  67 0033 00       		.byte	0
  68 0034 18       		.byte	24
  69 0035 18       		.byte	24
  70 0036 00       		.byte	0
  71 0037 00       		.byte	0
  72 0038 00       		.byte	0
  73 0039 66       		.byte	102
  74 003a 66       		.byte	102
  75 003b 66       		.byte	102
  76 003c 24       		.byte	36
  77 003d 00       		.byte	0
  78 003e 00       		.byte	0
  79 003f 00       		.byte	0
  80 0040 00       		.byte	0
  81 0041 00       		.byte	0
  82 0042 00       		.byte	0
  83 0043 00       		.byte	0
  84 0044 00       		.byte	0
  85 0045 00       		.byte	0
  86 0046 00       		.byte	0
  87 0047 00       		.byte	0
  88 0048 00       		.byte	0
  89 0049 6C       		.byte	108
  90 004a 6C       		.byte	108
  91 004b FE       		.byte	-2
  92 004c 6C       		.byte	108
  93 004d 6C       		.byte	108
  94 004e 6C       		.byte	108
  95 004f FE       		.byte	-2
  96 0050 6C       		.byte	108
  97 0051 6C       		.byte	108
  98 0052 00       		.byte	0
  99 0053 00       		.byte	0
 100 0054 00       		.byte	0
 101 0055 18       		.byte	24
 102 0056 18       		.byte	24
 103 0057 7C       		.byte	124
 104 0058 C6       		.byte	-58
 105 0059 C2       		.byte	-62
 106 005a C0       		.byte	-64
 107 005b 7C       		.byte	124
 108 005c 06       		.byte	6
 109 005d 86       		.byte	-122
 110 005e C6       		.byte	-58
ARM GAS  /cygdrive/c/Users/embedded/AppData/Local/Temp/cc2R7c4N.s 			page 3


 111 005f 7C       		.byte	124
 112 0060 18       		.byte	24
 113 0061 18       		.byte	24
 114 0062 00       		.byte	0
 115 0063 00       		.byte	0
 116 0064 00       		.byte	0
 117 0065 00       		.byte	0
 118 0066 00       		.byte	0
 119 0067 C2       		.byte	-62
 120 0068 C6       		.byte	-58
 121 0069 0C       		.byte	12
 122 006a 18       		.byte	24
 123 006b 30       		.byte	48
 124 006c 66       		.byte	102
 125 006d C6       		.byte	-58
 126 006e 00       		.byte	0
 127 006f 00       		.byte	0
 128 0070 00       		.byte	0
 129 0071 00       		.byte	0
 130 0072 00       		.byte	0
 131 0073 38       		.byte	56
 132 0074 6C       		.byte	108
 133 0075 6C       		.byte	108
 134 0076 38       		.byte	56
 135 0077 76       		.byte	118
 136 0078 DC       		.byte	-36
 137 0079 CC       		.byte	-52
 138 007a CC       		.byte	-52
 139 007b 76       		.byte	118
 140 007c 00       		.byte	0
 141 007d 00       		.byte	0
 142 007e 00       		.byte	0
 143 007f 18       		.byte	24
 144 0080 18       		.byte	24
 145 0081 18       		.byte	24
 146 0082 30       		.byte	48
 147 0083 00       		.byte	0
 148 0084 00       		.byte	0
 149 0085 00       		.byte	0
 150 0086 00       		.byte	0
 151 0087 00       		.byte	0
 152 0088 00       		.byte	0
 153 0089 00       		.byte	0
 154 008a 00       		.byte	0
 155 008b 00       		.byte	0
 156 008c 00       		.byte	0
 157 008d 00       		.byte	0
 158 008e 00       		.byte	0
 159 008f 0C       		.byte	12
 160 0090 18       		.byte	24
 161 0091 30       		.byte	48
 162 0092 30       		.byte	48
 163 0093 30       		.byte	48
 164 0094 30       		.byte	48
 165 0095 30       		.byte	48
 166 0096 18       		.byte	24
 167 0097 0C       		.byte	12
ARM GAS  /cygdrive/c/Users/embedded/AppData/Local/Temp/cc2R7c4N.s 			page 4


 168 0098 00       		.byte	0
 169 0099 00       		.byte	0
 170 009a 00       		.byte	0
 171 009b 00       		.byte	0
 172 009c 00       		.byte	0
 173 009d 30       		.byte	48
 174 009e 18       		.byte	24
 175 009f 0C       		.byte	12
 176 00a0 0C       		.byte	12
 177 00a1 0C       		.byte	12
 178 00a2 0C       		.byte	12
 179 00a3 0C       		.byte	12
 180 00a4 18       		.byte	24
 181 00a5 30       		.byte	48
 182 00a6 00       		.byte	0
 183 00a7 00       		.byte	0
 184 00a8 00       		.byte	0
 185 00a9 00       		.byte	0
 186 00aa 00       		.byte	0
 187 00ab 00       		.byte	0
 188 00ac 00       		.byte	0
 189 00ad 66       		.byte	102
 190 00ae 3C       		.byte	60
 191 00af FF       		.byte	-1
 192 00b0 3C       		.byte	60
 193 00b1 66       		.byte	102
 194 00b2 00       		.byte	0
 195 00b3 00       		.byte	0
 196 00b4 00       		.byte	0
 197 00b5 00       		.byte	0
 198 00b6 00       		.byte	0
 199 00b7 00       		.byte	0
 200 00b8 00       		.byte	0
 201 00b9 00       		.byte	0
 202 00ba 00       		.byte	0
 203 00bb 18       		.byte	24
 204 00bc 18       		.byte	24
 205 00bd 7E       		.byte	126
 206 00be 18       		.byte	24
 207 00bf 18       		.byte	24
 208 00c0 00       		.byte	0
 209 00c1 00       		.byte	0
 210 00c2 00       		.byte	0
 211 00c3 00       		.byte	0
 212 00c4 00       		.byte	0
 213 00c5 00       		.byte	0
 214 00c6 00       		.byte	0
 215 00c7 00       		.byte	0
 216 00c8 00       		.byte	0
 217 00c9 00       		.byte	0
 218 00ca 00       		.byte	0
 219 00cb 00       		.byte	0
 220 00cc 00       		.byte	0
 221 00cd 18       		.byte	24
 222 00ce 18       		.byte	24
 223 00cf 18       		.byte	24
 224 00d0 30       		.byte	48
ARM GAS  /cygdrive/c/Users/embedded/AppData/Local/Temp/cc2R7c4N.s 			page 5


 225 00d1 00       		.byte	0
 226 00d2 00       		.byte	0
 227 00d3 00       		.byte	0
 228 00d4 00       		.byte	0
 229 00d5 00       		.byte	0
 230 00d6 00       		.byte	0
 231 00d7 00       		.byte	0
 232 00d8 00       		.byte	0
 233 00d9 FE       		.byte	-2
 234 00da 00       		.byte	0
 235 00db 00       		.byte	0
 236 00dc 00       		.byte	0
 237 00dd 00       		.byte	0
 238 00de 00       		.byte	0
 239 00df 00       		.byte	0
 240 00e0 00       		.byte	0
 241 00e1 00       		.byte	0
 242 00e2 00       		.byte	0
 243 00e3 00       		.byte	0
 244 00e4 00       		.byte	0
 245 00e5 00       		.byte	0
 246 00e6 00       		.byte	0
 247 00e7 00       		.byte	0
 248 00e8 00       		.byte	0
 249 00e9 00       		.byte	0
 250 00ea 18       		.byte	24
 251 00eb 18       		.byte	24
 252 00ec 00       		.byte	0
 253 00ed 00       		.byte	0
 254 00ee 00       		.byte	0
 255 00ef 00       		.byte	0
 256 00f0 00       		.byte	0
 257 00f1 02       		.byte	2
 258 00f2 06       		.byte	6
 259 00f3 0C       		.byte	12
 260 00f4 18       		.byte	24
 261 00f5 30       		.byte	48
 262 00f6 60       		.byte	96
 263 00f7 C0       		.byte	-64
 264 00f8 80       		.byte	-128
 265 00f9 00       		.byte	0
 266 00fa 00       		.byte	0
 267 00fb 00       		.byte	0
 268 00fc 00       		.byte	0
 269 00fd 00       		.byte	0
 270 00fe 00       		.byte	0
 271 00ff 38       		.byte	56
 272 0100 6C       		.byte	108
 273 0101 C6       		.byte	-58
 274 0102 C6       		.byte	-58
 275 0103 D6       		.byte	-42
 276 0104 C6       		.byte	-58
 277 0105 C6       		.byte	-58
 278 0106 6C       		.byte	108
 279 0107 38       		.byte	56
 280 0108 00       		.byte	0
 281 0109 00       		.byte	0
ARM GAS  /cygdrive/c/Users/embedded/AppData/Local/Temp/cc2R7c4N.s 			page 6


 282 010a 00       		.byte	0
 283 010b 00       		.byte	0
 284 010c 00       		.byte	0
 285 010d 18       		.byte	24
 286 010e 38       		.byte	56
 287 010f 78       		.byte	120
 288 0110 18       		.byte	24
 289 0111 18       		.byte	24
 290 0112 18       		.byte	24
 291 0113 18       		.byte	24
 292 0114 18       		.byte	24
 293 0115 7E       		.byte	126
 294 0116 00       		.byte	0
 295 0117 00       		.byte	0
 296 0118 00       		.byte	0
 297 0119 00       		.byte	0
 298 011a 00       		.byte	0
 299 011b 7C       		.byte	124
 300 011c C6       		.byte	-58
 301 011d 06       		.byte	6
 302 011e 0C       		.byte	12
 303 011f 18       		.byte	24
 304 0120 30       		.byte	48
 305 0121 60       		.byte	96
 306 0122 C6       		.byte	-58
 307 0123 FE       		.byte	-2
 308 0124 00       		.byte	0
 309 0125 00       		.byte	0
 310 0126 00       		.byte	0
 311 0127 00       		.byte	0
 312 0128 00       		.byte	0
 313 0129 7C       		.byte	124
 314 012a C6       		.byte	-58
 315 012b 06       		.byte	6
 316 012c 06       		.byte	6
 317 012d 3C       		.byte	60
 318 012e 06       		.byte	6
 319 012f 06       		.byte	6
 320 0130 C6       		.byte	-58
 321 0131 7C       		.byte	124
 322 0132 00       		.byte	0
 323 0133 00       		.byte	0
 324 0134 00       		.byte	0
 325 0135 00       		.byte	0
 326 0136 00       		.byte	0
 327 0137 0C       		.byte	12
 328 0138 1C       		.byte	28
 329 0139 3C       		.byte	60
 330 013a 6C       		.byte	108
 331 013b CC       		.byte	-52
 332 013c FE       		.byte	-2
 333 013d 0C       		.byte	12
 334 013e 0C       		.byte	12
 335 013f 1E       		.byte	30
 336 0140 00       		.byte	0
 337 0141 00       		.byte	0
 338 0142 00       		.byte	0
ARM GAS  /cygdrive/c/Users/embedded/AppData/Local/Temp/cc2R7c4N.s 			page 7


 339 0143 00       		.byte	0
 340 0144 00       		.byte	0
 341 0145 FE       		.byte	-2
 342 0146 C0       		.byte	-64
 343 0147 C0       		.byte	-64
 344 0148 C0       		.byte	-64
 345 0149 FC       		.byte	-4
 346 014a 06       		.byte	6
 347 014b 06       		.byte	6
 348 014c C6       		.byte	-58
 349 014d 7C       		.byte	124
 350 014e 00       		.byte	0
 351 014f 00       		.byte	0
 352 0150 00       		.byte	0
 353 0151 00       		.byte	0
 354 0152 00       		.byte	0
 355 0153 38       		.byte	56
 356 0154 60       		.byte	96
 357 0155 C0       		.byte	-64
 358 0156 C0       		.byte	-64
 359 0157 FC       		.byte	-4
 360 0158 C6       		.byte	-58
 361 0159 C6       		.byte	-58
 362 015a C6       		.byte	-58
 363 015b 7C       		.byte	124
 364 015c 00       		.byte	0
 365 015d 00       		.byte	0
 366 015e 00       		.byte	0
 367 015f 00       		.byte	0
 368 0160 00       		.byte	0
 369 0161 FE       		.byte	-2
 370 0162 C6       		.byte	-58
 371 0163 06       		.byte	6
 372 0164 0C       		.byte	12
 373 0165 18       		.byte	24
 374 0166 30       		.byte	48
 375 0167 30       		.byte	48
 376 0168 30       		.byte	48
 377 0169 30       		.byte	48
 378 016a 00       		.byte	0
 379 016b 00       		.byte	0
 380 016c 00       		.byte	0
 381 016d 00       		.byte	0
 382 016e 00       		.byte	0
 383 016f 7C       		.byte	124
 384 0170 C6       		.byte	-58
 385 0171 C6       		.byte	-58
 386 0172 C6       		.byte	-58
 387 0173 7C       		.byte	124
 388 0174 C6       		.byte	-58
 389 0175 C6       		.byte	-58
 390 0176 C6       		.byte	-58
 391 0177 7C       		.byte	124
 392 0178 00       		.byte	0
 393 0179 00       		.byte	0
 394 017a 00       		.byte	0
 395 017b 00       		.byte	0
ARM GAS  /cygdrive/c/Users/embedded/AppData/Local/Temp/cc2R7c4N.s 			page 8


 396 017c 00       		.byte	0
 397 017d 7C       		.byte	124
 398 017e C6       		.byte	-58
 399 017f C6       		.byte	-58
 400 0180 C6       		.byte	-58
 401 0181 7E       		.byte	126
 402 0182 06       		.byte	6
 403 0183 06       		.byte	6
 404 0184 0C       		.byte	12
 405 0185 78       		.byte	120
 406 0186 00       		.byte	0
 407 0187 00       		.byte	0
 408 0188 00       		.byte	0
 409 0189 00       		.byte	0
 410 018a 00       		.byte	0
 411 018b 00       		.byte	0
 412 018c 18       		.byte	24
 413 018d 18       		.byte	24
 414 018e 00       		.byte	0
 415 018f 00       		.byte	0
 416 0190 00       		.byte	0
 417 0191 18       		.byte	24
 418 0192 18       		.byte	24
 419 0193 00       		.byte	0
 420 0194 00       		.byte	0
 421 0195 00       		.byte	0
 422 0196 00       		.byte	0
 423 0197 00       		.byte	0
 424 0198 00       		.byte	0
 425 0199 00       		.byte	0
 426 019a 18       		.byte	24
 427 019b 18       		.byte	24
 428 019c 00       		.byte	0
 429 019d 00       		.byte	0
 430 019e 00       		.byte	0
 431 019f 18       		.byte	24
 432 01a0 18       		.byte	24
 433 01a1 30       		.byte	48
 434 01a2 00       		.byte	0
 435 01a3 00       		.byte	0
 436 01a4 00       		.byte	0
 437 01a5 00       		.byte	0
 438 01a6 00       		.byte	0
 439 01a7 0C       		.byte	12
 440 01a8 18       		.byte	24
 441 01a9 30       		.byte	48
 442 01aa 60       		.byte	96
 443 01ab C0       		.byte	-64
 444 01ac 60       		.byte	96
 445 01ad 30       		.byte	48
 446 01ae 18       		.byte	24
 447 01af 0C       		.byte	12
 448 01b0 00       		.byte	0
 449 01b1 00       		.byte	0
 450 01b2 00       		.byte	0
 451 01b3 00       		.byte	0
 452 01b4 00       		.byte	0
ARM GAS  /cygdrive/c/Users/embedded/AppData/Local/Temp/cc2R7c4N.s 			page 9


 453 01b5 00       		.byte	0
 454 01b6 00       		.byte	0
 455 01b7 00       		.byte	0
 456 01b8 7E       		.byte	126
 457 01b9 00       		.byte	0
 458 01ba 00       		.byte	0
 459 01bb 7E       		.byte	126
 460 01bc 00       		.byte	0
 461 01bd 00       		.byte	0
 462 01be 00       		.byte	0
 463 01bf 00       		.byte	0
 464 01c0 00       		.byte	0
 465 01c1 00       		.byte	0
 466 01c2 00       		.byte	0
 467 01c3 60       		.byte	96
 468 01c4 30       		.byte	48
 469 01c5 18       		.byte	24
 470 01c6 0C       		.byte	12
 471 01c7 06       		.byte	6
 472 01c8 0C       		.byte	12
 473 01c9 18       		.byte	24
 474 01ca 30       		.byte	48
 475 01cb 60       		.byte	96
 476 01cc 00       		.byte	0
 477 01cd 00       		.byte	0
 478 01ce 00       		.byte	0
 479 01cf 00       		.byte	0
 480 01d0 00       		.byte	0
 481 01d1 7C       		.byte	124
 482 01d2 C6       		.byte	-58
 483 01d3 C6       		.byte	-58
 484 01d4 0C       		.byte	12
 485 01d5 18       		.byte	24
 486 01d6 18       		.byte	24
 487 01d7 00       		.byte	0
 488 01d8 18       		.byte	24
 489 01d9 18       		.byte	24
 490 01da 00       		.byte	0
 491 01db 00       		.byte	0
 492 01dc 00       		.byte	0
 493 01dd 00       		.byte	0
 494 01de 00       		.byte	0
 495 01df 7C       		.byte	124
 496 01e0 C6       		.byte	-58
 497 01e1 C6       		.byte	-58
 498 01e2 DE       		.byte	-34
 499 01e3 DE       		.byte	-34
 500 01e4 DE       		.byte	-34
 501 01e5 DC       		.byte	-36
 502 01e6 C0       		.byte	-64
 503 01e7 7C       		.byte	124
 504 01e8 00       		.byte	0
 505 01e9 00       		.byte	0
 506 01ea 00       		.byte	0
 507 01eb 00       		.byte	0
 508 01ec 00       		.byte	0
 509 01ed 10       		.byte	16
ARM GAS  /cygdrive/c/Users/embedded/AppData/Local/Temp/cc2R7c4N.s 			page 10


 510 01ee 38       		.byte	56
 511 01ef 6C       		.byte	108
 512 01f0 C6       		.byte	-58
 513 01f1 C6       		.byte	-58
 514 01f2 FE       		.byte	-2
 515 01f3 C6       		.byte	-58
 516 01f4 C6       		.byte	-58
 517 01f5 C6       		.byte	-58
 518 01f6 00       		.byte	0
 519 01f7 00       		.byte	0
 520 01f8 00       		.byte	0
 521 01f9 00       		.byte	0
 522 01fa 00       		.byte	0
 523 01fb FC       		.byte	-4
 524 01fc 66       		.byte	102
 525 01fd 66       		.byte	102
 526 01fe 66       		.byte	102
 527 01ff 7C       		.byte	124
 528 0200 66       		.byte	102
 529 0201 66       		.byte	102
 530 0202 66       		.byte	102
 531 0203 FC       		.byte	-4
 532 0204 00       		.byte	0
 533 0205 00       		.byte	0
 534 0206 00       		.byte	0
 535 0207 00       		.byte	0
 536 0208 00       		.byte	0
 537 0209 3C       		.byte	60
 538 020a 66       		.byte	102
 539 020b C2       		.byte	-62
 540 020c C0       		.byte	-64
 541 020d C0       		.byte	-64
 542 020e C0       		.byte	-64
 543 020f C2       		.byte	-62
 544 0210 66       		.byte	102
 545 0211 3C       		.byte	60
 546 0212 00       		.byte	0
 547 0213 00       		.byte	0
 548 0214 00       		.byte	0
 549 0215 00       		.byte	0
 550 0216 00       		.byte	0
 551 0217 F8       		.byte	-8
 552 0218 6C       		.byte	108
 553 0219 66       		.byte	102
 554 021a 66       		.byte	102
 555 021b 66       		.byte	102
 556 021c 66       		.byte	102
 557 021d 66       		.byte	102
 558 021e 6C       		.byte	108
 559 021f F8       		.byte	-8
 560 0220 00       		.byte	0
 561 0221 00       		.byte	0
 562 0222 00       		.byte	0
 563 0223 00       		.byte	0
 564 0224 00       		.byte	0
 565 0225 FE       		.byte	-2
 566 0226 66       		.byte	102
ARM GAS  /cygdrive/c/Users/embedded/AppData/Local/Temp/cc2R7c4N.s 			page 11


 567 0227 62       		.byte	98
 568 0228 68       		.byte	104
 569 0229 78       		.byte	120
 570 022a 68       		.byte	104
 571 022b 62       		.byte	98
 572 022c 66       		.byte	102
 573 022d FE       		.byte	-2
 574 022e 00       		.byte	0
 575 022f 00       		.byte	0
 576 0230 00       		.byte	0
 577 0231 00       		.byte	0
 578 0232 00       		.byte	0
 579 0233 FE       		.byte	-2
 580 0234 66       		.byte	102
 581 0235 62       		.byte	98
 582 0236 68       		.byte	104
 583 0237 78       		.byte	120
 584 0238 68       		.byte	104
 585 0239 60       		.byte	96
 586 023a 60       		.byte	96
 587 023b F0       		.byte	-16
 588 023c 00       		.byte	0
 589 023d 00       		.byte	0
 590 023e 00       		.byte	0
 591 023f 00       		.byte	0
 592 0240 00       		.byte	0
 593 0241 3C       		.byte	60
 594 0242 66       		.byte	102
 595 0243 C2       		.byte	-62
 596 0244 C0       		.byte	-64
 597 0245 C0       		.byte	-64
 598 0246 DE       		.byte	-34
 599 0247 C6       		.byte	-58
 600 0248 66       		.byte	102
 601 0249 3A       		.byte	58
 602 024a 00       		.byte	0
 603 024b 00       		.byte	0
 604 024c 00       		.byte	0
 605 024d 00       		.byte	0
 606 024e 00       		.byte	0
 607 024f C6       		.byte	-58
 608 0250 C6       		.byte	-58
 609 0251 C6       		.byte	-58
 610 0252 C6       		.byte	-58
 611 0253 FE       		.byte	-2
 612 0254 C6       		.byte	-58
 613 0255 C6       		.byte	-58
 614 0256 C6       		.byte	-58
 615 0257 C6       		.byte	-58
 616 0258 00       		.byte	0
 617 0259 00       		.byte	0
 618 025a 00       		.byte	0
 619 025b 00       		.byte	0
 620 025c 00       		.byte	0
 621 025d 3C       		.byte	60
 622 025e 18       		.byte	24
 623 025f 18       		.byte	24
ARM GAS  /cygdrive/c/Users/embedded/AppData/Local/Temp/cc2R7c4N.s 			page 12


 624 0260 18       		.byte	24
 625 0261 18       		.byte	24
 626 0262 18       		.byte	24
 627 0263 18       		.byte	24
 628 0264 18       		.byte	24
 629 0265 3C       		.byte	60
 630 0266 00       		.byte	0
 631 0267 00       		.byte	0
 632 0268 00       		.byte	0
 633 0269 00       		.byte	0
 634 026a 00       		.byte	0
 635 026b 1E       		.byte	30
 636 026c 0C       		.byte	12
 637 026d 0C       		.byte	12
 638 026e 0C       		.byte	12
 639 026f 0C       		.byte	12
 640 0270 0C       		.byte	12
 641 0271 CC       		.byte	-52
 642 0272 CC       		.byte	-52
 643 0273 78       		.byte	120
 644 0274 00       		.byte	0
 645 0275 00       		.byte	0
 646 0276 00       		.byte	0
 647 0277 00       		.byte	0
 648 0278 00       		.byte	0
 649 0279 E6       		.byte	-26
 650 027a 66       		.byte	102
 651 027b 6C       		.byte	108
 652 027c 6C       		.byte	108
 653 027d 78       		.byte	120
 654 027e 6C       		.byte	108
 655 027f 6C       		.byte	108
 656 0280 66       		.byte	102
 657 0281 E6       		.byte	-26
 658 0282 00       		.byte	0
 659 0283 00       		.byte	0
 660 0284 00       		.byte	0
 661 0285 00       		.byte	0
 662 0286 00       		.byte	0
 663 0287 F0       		.byte	-16
 664 0288 60       		.byte	96
 665 0289 60       		.byte	96
 666 028a 60       		.byte	96
 667 028b 60       		.byte	96
 668 028c 60       		.byte	96
 669 028d 62       		.byte	98
 670 028e 66       		.byte	102
 671 028f FE       		.byte	-2
 672 0290 00       		.byte	0
 673 0291 00       		.byte	0
 674 0292 00       		.byte	0
 675 0293 00       		.byte	0
 676 0294 00       		.byte	0
 677 0295 C6       		.byte	-58
 678 0296 EE       		.byte	-18
 679 0297 FE       		.byte	-2
 680 0298 D6       		.byte	-42
ARM GAS  /cygdrive/c/Users/embedded/AppData/Local/Temp/cc2R7c4N.s 			page 13


 681 0299 C6       		.byte	-58
 682 029a C6       		.byte	-58
 683 029b C6       		.byte	-58
 684 029c C6       		.byte	-58
 685 029d C6       		.byte	-58
 686 029e 00       		.byte	0
 687 029f 00       		.byte	0
 688 02a0 00       		.byte	0
 689 02a1 00       		.byte	0
 690 02a2 00       		.byte	0
 691 02a3 C6       		.byte	-58
 692 02a4 E6       		.byte	-26
 693 02a5 F6       		.byte	-10
 694 02a6 FE       		.byte	-2
 695 02a7 DE       		.byte	-34
 696 02a8 CE       		.byte	-50
 697 02a9 C6       		.byte	-58
 698 02aa C6       		.byte	-58
 699 02ab C6       		.byte	-58
 700 02ac 00       		.byte	0
 701 02ad 00       		.byte	0
 702 02ae 00       		.byte	0
 703 02af 00       		.byte	0
 704 02b0 00       		.byte	0
 705 02b1 7C       		.byte	124
 706 02b2 C6       		.byte	-58
 707 02b3 C6       		.byte	-58
 708 02b4 C6       		.byte	-58
 709 02b5 C6       		.byte	-58
 710 02b6 C6       		.byte	-58
 711 02b7 C6       		.byte	-58
 712 02b8 C6       		.byte	-58
 713 02b9 7C       		.byte	124
 714 02ba 00       		.byte	0
 715 02bb 00       		.byte	0
 716 02bc 00       		.byte	0
 717 02bd 00       		.byte	0
 718 02be 00       		.byte	0
 719 02bf FC       		.byte	-4
 720 02c0 66       		.byte	102
 721 02c1 66       		.byte	102
 722 02c2 66       		.byte	102
 723 02c3 7C       		.byte	124
 724 02c4 60       		.byte	96
 725 02c5 60       		.byte	96
 726 02c6 60       		.byte	96
 727 02c7 F0       		.byte	-16
 728 02c8 00       		.byte	0
 729 02c9 00       		.byte	0
 730 02ca 00       		.byte	0
 731 02cb 00       		.byte	0
 732 02cc 00       		.byte	0
 733 02cd 7C       		.byte	124
 734 02ce C6       		.byte	-58
 735 02cf C6       		.byte	-58
 736 02d0 C6       		.byte	-58
 737 02d1 C6       		.byte	-58
ARM GAS  /cygdrive/c/Users/embedded/AppData/Local/Temp/cc2R7c4N.s 			page 14


 738 02d2 C6       		.byte	-58
 739 02d3 D6       		.byte	-42
 740 02d4 DE       		.byte	-34
 741 02d5 7C       		.byte	124
 742 02d6 0E       		.byte	14
 743 02d7 00       		.byte	0
 744 02d8 00       		.byte	0
 745 02d9 00       		.byte	0
 746 02da 00       		.byte	0
 747 02db FC       		.byte	-4
 748 02dc 66       		.byte	102
 749 02dd 66       		.byte	102
 750 02de 66       		.byte	102
 751 02df 7C       		.byte	124
 752 02e0 6C       		.byte	108
 753 02e1 66       		.byte	102
 754 02e2 66       		.byte	102
 755 02e3 E6       		.byte	-26
 756 02e4 00       		.byte	0
 757 02e5 00       		.byte	0
 758 02e6 00       		.byte	0
 759 02e7 00       		.byte	0
 760 02e8 00       		.byte	0
 761 02e9 7C       		.byte	124
 762 02ea C6       		.byte	-58
 763 02eb C6       		.byte	-58
 764 02ec 60       		.byte	96
 765 02ed 38       		.byte	56
 766 02ee 0C       		.byte	12
 767 02ef C6       		.byte	-58
 768 02f0 C6       		.byte	-58
 769 02f1 7C       		.byte	124
 770 02f2 00       		.byte	0
 771 02f3 00       		.byte	0
 772 02f4 00       		.byte	0
 773 02f5 00       		.byte	0
 774 02f6 00       		.byte	0
 775 02f7 7E       		.byte	126
 776 02f8 7E       		.byte	126
 777 02f9 5A       		.byte	90
 778 02fa 18       		.byte	24
 779 02fb 18       		.byte	24
 780 02fc 18       		.byte	24
 781 02fd 18       		.byte	24
 782 02fe 18       		.byte	24
 783 02ff 3C       		.byte	60
 784 0300 00       		.byte	0
 785 0301 00       		.byte	0
 786 0302 00       		.byte	0
 787 0303 00       		.byte	0
 788 0304 00       		.byte	0
 789 0305 C6       		.byte	-58
 790 0306 C6       		.byte	-58
 791 0307 C6       		.byte	-58
 792 0308 C6       		.byte	-58
 793 0309 C6       		.byte	-58
 794 030a C6       		.byte	-58
ARM GAS  /cygdrive/c/Users/embedded/AppData/Local/Temp/cc2R7c4N.s 			page 15


 795 030b C6       		.byte	-58
 796 030c C6       		.byte	-58
 797 030d 7C       		.byte	124
 798 030e 00       		.byte	0
 799 030f 00       		.byte	0
 800 0310 00       		.byte	0
 801 0311 00       		.byte	0
 802 0312 00       		.byte	0
 803 0313 C6       		.byte	-58
 804 0314 C6       		.byte	-58
 805 0315 C6       		.byte	-58
 806 0316 C6       		.byte	-58
 807 0317 C6       		.byte	-58
 808 0318 C6       		.byte	-58
 809 0319 6C       		.byte	108
 810 031a 38       		.byte	56
 811 031b 10       		.byte	16
 812 031c 00       		.byte	0
 813 031d 00       		.byte	0
 814 031e 00       		.byte	0
 815 031f 00       		.byte	0
 816 0320 00       		.byte	0
 817 0321 C6       		.byte	-58
 818 0322 C6       		.byte	-58
 819 0323 C6       		.byte	-58
 820 0324 C6       		.byte	-58
 821 0325 D6       		.byte	-42
 822 0326 D6       		.byte	-42
 823 0327 FE       		.byte	-2
 824 0328 6C       		.byte	108
 825 0329 6C       		.byte	108
 826 032a 00       		.byte	0
 827 032b 00       		.byte	0
 828 032c 00       		.byte	0
 829 032d 00       		.byte	0
 830 032e 00       		.byte	0
 831 032f C6       		.byte	-58
 832 0330 C6       		.byte	-58
 833 0331 C6       		.byte	-58
 834 0332 7C       		.byte	124
 835 0333 38       		.byte	56
 836 0334 7C       		.byte	124
 837 0335 C6       		.byte	-58
 838 0336 C6       		.byte	-58
 839 0337 C6       		.byte	-58
 840 0338 00       		.byte	0
 841 0339 00       		.byte	0
 842 033a 00       		.byte	0
 843 033b 00       		.byte	0
 844 033c 00       		.byte	0
 845 033d 66       		.byte	102
 846 033e 66       		.byte	102
 847 033f 66       		.byte	102
 848 0340 66       		.byte	102
 849 0341 3C       		.byte	60
 850 0342 18       		.byte	24
 851 0343 18       		.byte	24
ARM GAS  /cygdrive/c/Users/embedded/AppData/Local/Temp/cc2R7c4N.s 			page 16


 852 0344 18       		.byte	24
 853 0345 3C       		.byte	60
 854 0346 00       		.byte	0
 855 0347 00       		.byte	0
 856 0348 00       		.byte	0
 857 0349 00       		.byte	0
 858 034a 00       		.byte	0
 859 034b FE       		.byte	-2
 860 034c C6       		.byte	-58
 861 034d 8C       		.byte	-116
 862 034e 18       		.byte	24
 863 034f 30       		.byte	48
 864 0350 60       		.byte	96
 865 0351 C2       		.byte	-62
 866 0352 C6       		.byte	-58
 867 0353 FE       		.byte	-2
 868 0354 00       		.byte	0
 869 0355 00       		.byte	0
 870 0356 00       		.byte	0
 871 0357 00       		.byte	0
 872 0358 00       		.byte	0
 873 0359 3C       		.byte	60
 874 035a 30       		.byte	48
 875 035b 30       		.byte	48
 876 035c 30       		.byte	48
 877 035d 30       		.byte	48
 878 035e 30       		.byte	48
 879 035f 30       		.byte	48
 880 0360 30       		.byte	48
 881 0361 3C       		.byte	60
 882 0362 00       		.byte	0
 883 0363 00       		.byte	0
 884 0364 00       		.byte	0
 885 0365 00       		.byte	0
 886 0366 00       		.byte	0
 887 0367 80       		.byte	-128
 888 0368 C0       		.byte	-64
 889 0369 E0       		.byte	-32
 890 036a 70       		.byte	112
 891 036b 38       		.byte	56
 892 036c 1C       		.byte	28
 893 036d 0E       		.byte	14
 894 036e 06       		.byte	6
 895 036f 02       		.byte	2
 896 0370 00       		.byte	0
 897 0371 00       		.byte	0
 898 0372 00       		.byte	0
 899 0373 00       		.byte	0
 900 0374 00       		.byte	0
 901 0375 3C       		.byte	60
 902 0376 0C       		.byte	12
 903 0377 0C       		.byte	12
 904 0378 0C       		.byte	12
 905 0379 0C       		.byte	12
 906 037a 0C       		.byte	12
 907 037b 0C       		.byte	12
 908 037c 0C       		.byte	12
ARM GAS  /cygdrive/c/Users/embedded/AppData/Local/Temp/cc2R7c4N.s 			page 17


 909 037d 3C       		.byte	60
 910 037e 00       		.byte	0
 911 037f 00       		.byte	0
 912 0380 10       		.byte	16
 913 0381 38       		.byte	56
 914 0382 6C       		.byte	108
 915 0383 C6       		.byte	-58
 916 0384 00       		.byte	0
 917 0385 00       		.byte	0
 918 0386 00       		.byte	0
 919 0387 00       		.byte	0
 920 0388 00       		.byte	0
 921 0389 00       		.byte	0
 922 038a 00       		.byte	0
 923 038b 00       		.byte	0
 924 038c 00       		.byte	0
 925 038d 00       		.byte	0
 926 038e 00       		.byte	0
 927 038f 00       		.byte	0
 928 0390 00       		.byte	0
 929 0391 00       		.byte	0
 930 0392 00       		.byte	0
 931 0393 00       		.byte	0
 932 0394 00       		.byte	0
 933 0395 00       		.byte	0
 934 0396 00       		.byte	0
 935 0397 00       		.byte	0
 936 0398 00       		.byte	0
 937 0399 00       		.byte	0
 938 039a 00       		.byte	0
 939 039b FF       		.byte	-1
 940 039c 00       		.byte	0
 941 039d 30       		.byte	48
 942 039e 18       		.byte	24
 943 039f 0C       		.byte	12
 944 03a0 00       		.byte	0
 945 03a1 00       		.byte	0
 946 03a2 00       		.byte	0
 947 03a3 00       		.byte	0
 948 03a4 00       		.byte	0
 949 03a5 00       		.byte	0
 950 03a6 00       		.byte	0
 951 03a7 00       		.byte	0
 952 03a8 00       		.byte	0
 953 03a9 00       		.byte	0
 954 03aa 00       		.byte	0
 955 03ab 00       		.byte	0
 956 03ac 00       		.byte	0
 957 03ad 00       		.byte	0
 958 03ae 00       		.byte	0
 959 03af 00       		.byte	0
 960 03b0 78       		.byte	120
 961 03b1 0C       		.byte	12
 962 03b2 7C       		.byte	124
 963 03b3 CC       		.byte	-52
 964 03b4 CC       		.byte	-52
 965 03b5 76       		.byte	118
ARM GAS  /cygdrive/c/Users/embedded/AppData/Local/Temp/cc2R7c4N.s 			page 18


 966 03b6 00       		.byte	0
 967 03b7 00       		.byte	0
 968 03b8 00       		.byte	0
 969 03b9 00       		.byte	0
 970 03ba 00       		.byte	0
 971 03bb E0       		.byte	-32
 972 03bc 60       		.byte	96
 973 03bd 60       		.byte	96
 974 03be 78       		.byte	120
 975 03bf 6C       		.byte	108
 976 03c0 66       		.byte	102
 977 03c1 66       		.byte	102
 978 03c2 66       		.byte	102
 979 03c3 7C       		.byte	124
 980 03c4 00       		.byte	0
 981 03c5 00       		.byte	0
 982 03c6 00       		.byte	0
 983 03c7 00       		.byte	0
 984 03c8 00       		.byte	0
 985 03c9 00       		.byte	0
 986 03ca 00       		.byte	0
 987 03cb 00       		.byte	0
 988 03cc 7C       		.byte	124
 989 03cd C6       		.byte	-58
 990 03ce C0       		.byte	-64
 991 03cf C0       		.byte	-64
 992 03d0 C6       		.byte	-58
 993 03d1 7C       		.byte	124
 994 03d2 00       		.byte	0
 995 03d3 00       		.byte	0
 996 03d4 00       		.byte	0
 997 03d5 00       		.byte	0
 998 03d6 00       		.byte	0
 999 03d7 1C       		.byte	28
 1000 03d8 0C       		.byte	12
 1001 03d9 0C       		.byte	12
 1002 03da 3C       		.byte	60
 1003 03db 6C       		.byte	108
 1004 03dc CC       		.byte	-52
 1005 03dd CC       		.byte	-52
 1006 03de CC       		.byte	-52
 1007 03df 76       		.byte	118
 1008 03e0 00       		.byte	0
 1009 03e1 00       		.byte	0
 1010 03e2 00       		.byte	0
 1011 03e3 00       		.byte	0
 1012 03e4 00       		.byte	0
 1013 03e5 00       		.byte	0
 1014 03e6 00       		.byte	0
 1015 03e7 00       		.byte	0
 1016 03e8 7C       		.byte	124
 1017 03e9 C6       		.byte	-58
 1018 03ea FE       		.byte	-2
 1019 03eb C0       		.byte	-64
 1020 03ec C6       		.byte	-58
 1021 03ed 7C       		.byte	124
 1022 03ee 00       		.byte	0
ARM GAS  /cygdrive/c/Users/embedded/AppData/Local/Temp/cc2R7c4N.s 			page 19


 1023 03ef 00       		.byte	0
 1024 03f0 00       		.byte	0
 1025 03f1 00       		.byte	0
 1026 03f2 00       		.byte	0
 1027 03f3 1C       		.byte	28
 1028 03f4 36       		.byte	54
 1029 03f5 32       		.byte	50
 1030 03f6 30       		.byte	48
 1031 03f7 7C       		.byte	124
 1032 03f8 30       		.byte	48
 1033 03f9 30       		.byte	48
 1034 03fa 30       		.byte	48
 1035 03fb 78       		.byte	120
 1036 03fc 00       		.byte	0
 1037 03fd 00       		.byte	0
 1038 03fe 00       		.byte	0
 1039 03ff 00       		.byte	0
 1040 0400 00       		.byte	0
 1041 0401 00       		.byte	0
 1042 0402 00       		.byte	0
 1043 0403 00       		.byte	0
 1044 0404 76       		.byte	118
 1045 0405 CC       		.byte	-52
 1046 0406 CC       		.byte	-52
 1047 0407 CC       		.byte	-52
 1048 0408 7C       		.byte	124
 1049 0409 0C       		.byte	12
 1050 040a CC       		.byte	-52
 1051 040b 78       		.byte	120
 1052 040c 00       		.byte	0
 1053 040d 00       		.byte	0
 1054 040e 00       		.byte	0
 1055 040f E0       		.byte	-32
 1056 0410 60       		.byte	96
 1057 0411 60       		.byte	96
 1058 0412 6C       		.byte	108
 1059 0413 76       		.byte	118
 1060 0414 66       		.byte	102
 1061 0415 66       		.byte	102
 1062 0416 66       		.byte	102
 1063 0417 E6       		.byte	-26
 1064 0418 00       		.byte	0
 1065 0419 00       		.byte	0
 1066 041a 00       		.byte	0
 1067 041b 00       		.byte	0
 1068 041c 00       		.byte	0
 1069 041d 18       		.byte	24
 1070 041e 18       		.byte	24
 1071 041f 00       		.byte	0
 1072 0420 38       		.byte	56
 1073 0421 18       		.byte	24
 1074 0422 18       		.byte	24
 1075 0423 18       		.byte	24
 1076 0424 18       		.byte	24
 1077 0425 3C       		.byte	60
 1078 0426 00       		.byte	0
 1079 0427 00       		.byte	0
ARM GAS  /cygdrive/c/Users/embedded/AppData/Local/Temp/cc2R7c4N.s 			page 20


 1080 0428 00       		.byte	0
 1081 0429 00       		.byte	0
 1082 042a 00       		.byte	0
 1083 042b 06       		.byte	6
 1084 042c 06       		.byte	6
 1085 042d 00       		.byte	0
 1086 042e 0E       		.byte	14
 1087 042f 06       		.byte	6
 1088 0430 06       		.byte	6
 1089 0431 06       		.byte	6
 1090 0432 06       		.byte	6
 1091 0433 66       		.byte	102
 1092 0434 66       		.byte	102
 1093 0435 3C       		.byte	60
 1094 0436 00       		.byte	0
 1095 0437 00       		.byte	0
 1096 0438 00       		.byte	0
 1097 0439 E0       		.byte	-32
 1098 043a 60       		.byte	96
 1099 043b 60       		.byte	96
 1100 043c 66       		.byte	102
 1101 043d 6C       		.byte	108
 1102 043e 78       		.byte	120
 1103 043f 6C       		.byte	108
 1104 0440 66       		.byte	102
 1105 0441 E6       		.byte	-26
 1106 0442 00       		.byte	0
 1107 0443 00       		.byte	0
 1108 0444 00       		.byte	0
 1109 0445 00       		.byte	0
 1110 0446 00       		.byte	0
 1111 0447 38       		.byte	56
 1112 0448 18       		.byte	24
 1113 0449 18       		.byte	24
 1114 044a 18       		.byte	24
 1115 044b 18       		.byte	24
 1116 044c 18       		.byte	24
 1117 044d 18       		.byte	24
 1118 044e 18       		.byte	24
 1119 044f 3C       		.byte	60
 1120 0450 00       		.byte	0
 1121 0451 00       		.byte	0
 1122 0452 00       		.byte	0
 1123 0453 00       		.byte	0
 1124 0454 00       		.byte	0
 1125 0455 00       		.byte	0
 1126 0456 00       		.byte	0
 1127 0457 00       		.byte	0
 1128 0458 EC       		.byte	-20
 1129 0459 FE       		.byte	-2
 1130 045a D6       		.byte	-42
 1131 045b D6       		.byte	-42
 1132 045c D6       		.byte	-42
 1133 045d D6       		.byte	-42
 1134 045e 00       		.byte	0
 1135 045f 00       		.byte	0
 1136 0460 00       		.byte	0
ARM GAS  /cygdrive/c/Users/embedded/AppData/Local/Temp/cc2R7c4N.s 			page 21


 1137 0461 00       		.byte	0
 1138 0462 00       		.byte	0
 1139 0463 00       		.byte	0
 1140 0464 00       		.byte	0
 1141 0465 00       		.byte	0
 1142 0466 DC       		.byte	-36
 1143 0467 66       		.byte	102
 1144 0468 66       		.byte	102
 1145 0469 66       		.byte	102
 1146 046a 66       		.byte	102
 1147 046b 66       		.byte	102
 1148 046c 00       		.byte	0
 1149 046d 00       		.byte	0
 1150 046e 00       		.byte	0
 1151 046f 00       		.byte	0
 1152 0470 00       		.byte	0
 1153 0471 00       		.byte	0
 1154 0472 00       		.byte	0
 1155 0473 00       		.byte	0
 1156 0474 7C       		.byte	124
 1157 0475 C6       		.byte	-58
 1158 0476 C6       		.byte	-58
 1159 0477 C6       		.byte	-58
 1160 0478 C6       		.byte	-58
 1161 0479 7C       		.byte	124
 1162 047a 00       		.byte	0
 1163 047b 00       		.byte	0
 1164 047c 00       		.byte	0
 1165 047d 00       		.byte	0
 1166 047e 00       		.byte	0
 1167 047f 00       		.byte	0
 1168 0480 00       		.byte	0
 1169 0481 00       		.byte	0
 1170 0482 DC       		.byte	-36
 1171 0483 66       		.byte	102
 1172 0484 66       		.byte	102
 1173 0485 66       		.byte	102
 1174 0486 7C       		.byte	124
 1175 0487 60       		.byte	96
 1176 0488 60       		.byte	96
 1177 0489 F0       		.byte	-16
 1178 048a 00       		.byte	0
 1179 048b 00       		.byte	0
 1180 048c 00       		.byte	0
 1181 048d 00       		.byte	0
 1182 048e 00       		.byte	0
 1183 048f 00       		.byte	0
 1184 0490 76       		.byte	118
 1185 0491 CC       		.byte	-52
 1186 0492 CC       		.byte	-52
 1187 0493 CC       		.byte	-52
 1188 0494 7C       		.byte	124
 1189 0495 0C       		.byte	12
 1190 0496 0C       		.byte	12
 1191 0497 1E       		.byte	30
 1192 0498 00       		.byte	0
 1193 0499 00       		.byte	0
ARM GAS  /cygdrive/c/Users/embedded/AppData/Local/Temp/cc2R7c4N.s 			page 22


 1194 049a 00       		.byte	0
 1195 049b 00       		.byte	0
 1196 049c 00       		.byte	0
 1197 049d 00       		.byte	0
 1198 049e DC       		.byte	-36
 1199 049f 76       		.byte	118
 1200 04a0 66       		.byte	102
 1201 04a1 60       		.byte	96
 1202 04a2 60       		.byte	96
 1203 04a3 F0       		.byte	-16
 1204 04a4 00       		.byte	0
 1205 04a5 00       		.byte	0
 1206 04a6 00       		.byte	0
 1207 04a7 00       		.byte	0
 1208 04a8 00       		.byte	0
 1209 04a9 00       		.byte	0
 1210 04aa 00       		.byte	0
 1211 04ab 00       		.byte	0
 1212 04ac 7C       		.byte	124
 1213 04ad C6       		.byte	-58
 1214 04ae 70       		.byte	112
 1215 04af 1C       		.byte	28
 1216 04b0 C6       		.byte	-58
 1217 04b1 7C       		.byte	124
 1218 04b2 00       		.byte	0
 1219 04b3 00       		.byte	0
 1220 04b4 00       		.byte	0
 1221 04b5 00       		.byte	0
 1222 04b6 00       		.byte	0
 1223 04b7 10       		.byte	16
 1224 04b8 30       		.byte	48
 1225 04b9 30       		.byte	48
 1226 04ba FC       		.byte	-4
 1227 04bb 30       		.byte	48
 1228 04bc 30       		.byte	48
 1229 04bd 30       		.byte	48
 1230 04be 36       		.byte	54
 1231 04bf 1C       		.byte	28
 1232 04c0 00       		.byte	0
 1233 04c1 00       		.byte	0
 1234 04c2 00       		.byte	0
 1235 04c3 00       		.byte	0
 1236 04c4 00       		.byte	0
 1237 04c5 00       		.byte	0
 1238 04c6 00       		.byte	0
 1239 04c7 00       		.byte	0
 1240 04c8 CC       		.byte	-52
 1241 04c9 CC       		.byte	-52
 1242 04ca CC       		.byte	-52
 1243 04cb CC       		.byte	-52
 1244 04cc CC       		.byte	-52
 1245 04cd 76       		.byte	118
 1246 04ce 00       		.byte	0
 1247 04cf 00       		.byte	0
 1248 04d0 00       		.byte	0
 1249 04d1 00       		.byte	0
 1250 04d2 00       		.byte	0
ARM GAS  /cygdrive/c/Users/embedded/AppData/Local/Temp/cc2R7c4N.s 			page 23


 1251 04d3 00       		.byte	0
 1252 04d4 00       		.byte	0
 1253 04d5 00       		.byte	0
 1254 04d6 C6       		.byte	-58
 1255 04d7 C6       		.byte	-58
 1256 04d8 C6       		.byte	-58
 1257 04d9 6C       		.byte	108
 1258 04da 38       		.byte	56
 1259 04db 10       		.byte	16
 1260 04dc 00       		.byte	0
 1261 04dd 00       		.byte	0
 1262 04de 00       		.byte	0
 1263 04df 00       		.byte	0
 1264 04e0 00       		.byte	0
 1265 04e1 00       		.byte	0
 1266 04e2 00       		.byte	0
 1267 04e3 00       		.byte	0
 1268 04e4 C6       		.byte	-58
 1269 04e5 C6       		.byte	-58
 1270 04e6 D6       		.byte	-42
 1271 04e7 D6       		.byte	-42
 1272 04e8 FE       		.byte	-2
 1273 04e9 6C       		.byte	108
 1274 04ea 00       		.byte	0
 1275 04eb 00       		.byte	0
 1276 04ec 00       		.byte	0
 1277 04ed 00       		.byte	0
 1278 04ee 00       		.byte	0
 1279 04ef 00       		.byte	0
 1280 04f0 00       		.byte	0
 1281 04f1 00       		.byte	0
 1282 04f2 C6       		.byte	-58
 1283 04f3 6C       		.byte	108
 1284 04f4 38       		.byte	56
 1285 04f5 38       		.byte	56
 1286 04f6 6C       		.byte	108
 1287 04f7 C6       		.byte	-58
 1288 04f8 00       		.byte	0
 1289 04f9 00       		.byte	0
 1290 04fa 00       		.byte	0
 1291 04fb 00       		.byte	0
 1292 04fc 00       		.byte	0
 1293 04fd 00       		.byte	0
 1294 04fe 00       		.byte	0
 1295 04ff 00       		.byte	0
 1296 0500 C6       		.byte	-58
 1297 0501 C6       		.byte	-58
 1298 0502 C6       		.byte	-58
 1299 0503 C6       		.byte	-58
 1300 0504 7E       		.byte	126
 1301 0505 06       		.byte	6
 1302 0506 0C       		.byte	12
 1303 0507 78       		.byte	120
 1304 0508 00       		.byte	0
 1305 0509 00       		.byte	0
 1306 050a 00       		.byte	0
 1307 050b 00       		.byte	0
ARM GAS  /cygdrive/c/Users/embedded/AppData/Local/Temp/cc2R7c4N.s 			page 24


 1308 050c 00       		.byte	0
 1309 050d 00       		.byte	0
 1310 050e FE       		.byte	-2
 1311 050f CC       		.byte	-52
 1312 0510 18       		.byte	24
 1313 0511 30       		.byte	48
 1314 0512 66       		.byte	102
 1315 0513 FE       		.byte	-2
 1316 0514 00       		.byte	0
 1317 0515 00       		.byte	0
 1318 0516 00       		.byte	0
 1319 0517 00       		.byte	0
 1320 0518 00       		.byte	0
 1321 0519 0E       		.byte	14
 1322 051a 18       		.byte	24
 1323 051b 18       		.byte	24
 1324 051c 18       		.byte	24
 1325 051d 70       		.byte	112
 1326 051e 18       		.byte	24
 1327 051f 18       		.byte	24
 1328 0520 18       		.byte	24
 1329 0521 0E       		.byte	14
 1330 0522 00       		.byte	0
 1331 0523 00       		.byte	0
 1332 0524 00       		.byte	0
 1333 0525 00       		.byte	0
 1334 0526 00       		.byte	0
 1335 0527 18       		.byte	24
 1336 0528 18       		.byte	24
 1337 0529 18       		.byte	24
 1338 052a 18       		.byte	24
 1339 052b 18       		.byte	24
 1340 052c 18       		.byte	24
 1341 052d 18       		.byte	24
 1342 052e 18       		.byte	24
 1343 052f 18       		.byte	24
 1344 0530 00       		.byte	0
 1345 0531 00       		.byte	0
 1346 0532 00       		.byte	0
 1347 0533 00       		.byte	0
 1348 0534 00       		.byte	0
 1349 0535 70       		.byte	112
 1350 0536 18       		.byte	24
 1351 0537 18       		.byte	24
 1352 0538 18       		.byte	24
 1353 0539 0E       		.byte	14
 1354 053a 18       		.byte	24
 1355 053b 18       		.byte	24
 1356 053c 18       		.byte	24
 1357 053d 70       		.byte	112
 1358 053e 00       		.byte	0
 1359 053f 00       		.byte	0
 1360 0540 00       		.byte	0
 1361 0541 76       		.byte	118
 1362 0542 DC       		.byte	-36
 1363 0543 00       		.byte	0
 1364 0544 00       		.byte	0
ARM GAS  /cygdrive/c/Users/embedded/AppData/Local/Temp/cc2R7c4N.s 			page 25


 1365 0545 00       		.byte	0
 1366 0546 00       		.byte	0
 1367 0547 00       		.byte	0
 1368 0548 00       		.byte	0
 1369 0549 00       		.byte	0
 1370 054a 00       		.byte	0
 1371 054b 00       		.byte	0
 1372 054c 00       		.byte	0
 1373 054d 00       		.byte	0
 1374 054e 00       		.byte	0
 1375 054f 00       		.byte	0
 1376 0550 00       		.byte	0
 1377 0551 00       		.byte	0
 1378 0552 00       		.byte	0
 1379 0553 10       		.byte	16
 1380 0554 38       		.byte	56
 1381 0555 6C       		.byte	108
 1382 0556 C6       		.byte	-58
 1383 0557 C6       		.byte	-58
 1384 0558 FE       		.byte	-2
 1385 0559 00       		.byte	0
 1386 055a 00       		.byte	0
 1387 055b 00       		.byte	0
 1388              		.text
 1389              		.align	2
 1390              		.global	lcdInit
 1391              		.code 16
 1392              		.thumb_func
 1393              		.type	lcdInit, %function
 1394              	lcdInit:
 1395              	.LFB2:
 1396              		.file 1 "lcd.c"
   1:lcd.c         **** /******************************************************************************
   2:lcd.c         ****  *
   3:lcd.c         ****  * Copyright:
   4:lcd.c         ****  *    (C) 2006 Embedded Artists AB
   5:lcd.c         ****  *
   6:lcd.c         ****  * File:
   7:lcd.c         ****  *    lcd.c
   8:lcd.c         ****  *
   9:lcd.c         ****  * Description:
  10:lcd.c         ****  *    Implements routines for the LCD.
  11:lcd.c         ****  *
  12:lcd.c         ****  *****************************************************************************/
  13:lcd.c         **** 
  14:lcd.c         **** /******************************************************************************
  15:lcd.c         ****  * Includes
  16:lcd.c         ****  *****************************************************************************/
  17:lcd.c         **** 
  18:lcd.c         **** #include "general.h"
  19:lcd.c         **** #include "lcd.h"
  20:lcd.c         **** #include "lcd_hw.h"
  21:lcd.c         **** #include "ascii.h"
  22:lcd.c         **** #include "additional.h"
  23:lcd.c         **** 
  24:lcd.c         **** /******************************************************************************
  25:lcd.c         ****  * Typedefs and defines
ARM GAS  /cygdrive/c/Users/embedded/AppData/Local/Temp/cc2R7c4N.s 			page 26


  26:lcd.c         ****  *****************************************************************************/
  27:lcd.c         **** 
  28:lcd.c         **** #define LCD_CMD_SWRESET   0x01
  29:lcd.c         **** #define LCD_CMD_BSTRON    0x03
  30:lcd.c         **** #define LCD_CMD_SLEEPIN   0x10
  31:lcd.c         **** #define LCD_CMD_SLEEPOUT  0x11
  32:lcd.c         **** #define LCD_CMD_INVON     0x21
  33:lcd.c         **** #define LCD_CMD_SETCON    0x25
  34:lcd.c         **** #define LCD_CMD_DISPON    0x29
  35:lcd.c         **** #define LCD_CMD_CASET     0x2A
  36:lcd.c         **** #define LCD_CMD_PASET     0x2B
  37:lcd.c         **** #define LCD_CMD_RAMWR     0x2C
  38:lcd.c         **** #define LCD_CMD_RGBSET    0x2D
  39:lcd.c         **** #define LCD_CMD_MADCTL    0x36
  40:lcd.c         **** #define LCD_CMD_COLMOD    0x3A
  41:lcd.c         **** 
  42:lcd.c         **** #define MADCTL_HORIZ      0x48
  43:lcd.c         **** #define MADCTL_VERT       0x68
  44:lcd.c         **** 
  45:lcd.c         **** 
  46:lcd.c         **** /*****************************************************************************
  47:lcd.c         ****  * Global variables
  48:lcd.c         ****  ****************************************************************************/
  49:lcd.c         **** 
  50:lcd.c         **** /*****************************************************************************
  51:lcd.c         ****  * Local variables
  52:lcd.c         ****  ****************************************************************************/
  53:lcd.c         **** 
  54:lcd.c         **** static tU8 lcd_x;
  55:lcd.c         **** static tU8 lcd_y;
  56:lcd.c         **** static tU8 bkgColor;
  57:lcd.c         **** static tU8 textColor;
  58:lcd.c         **** static tU8 setcolmark;
  59:lcd.c         **** 
  60:lcd.c         **** /*****************************************************************************
  61:lcd.c         ****  * Local prototypes
  62:lcd.c         ****  ****************************************************************************/
  63:lcd.c         **** 
  64:lcd.c         **** static void lcdWindow1(tU8 xp, tU8 yp, tU8 xe, tU8 ye);
  65:lcd.c         **** 
  66:lcd.c         **** /*****************************************************************************
  67:lcd.c         ****  *
  68:lcd.c         ****  * Description:
  69:lcd.c         ****  *    Initialize the LCD controller and SPI interface
  70:lcd.c         ****  *    (0,0) is top left and (129,129) is bottom right
  71:lcd.c         ****  *    8 bits Color mode uses RRRGGGBB layout
  72:lcd.c         ****  *
  73:lcd.c         ****  ****************************************************************************/
  74:lcd.c         **** 
  75:lcd.c         **** void lcdInit(void)
  76:lcd.c         **** {
 1397              		.loc 1 76 0
 1398 0000 80B5     		push	{r7, lr}
 1399              	.LCFI0:
 1400 0002 00AF     		add	r7, sp, #0
 1401              	.LCFI1:
  77:lcd.c         ****   bkgColor  = 0;
ARM GAS  /cygdrive/c/Users/embedded/AppData/Local/Temp/cc2R7c4N.s 			page 27


 1402              		.loc 1 77 0
 1403 0004 3B4A     		ldr	r2, .L3
 1404 0006 0023     		mov	r3, #0
 1405 0008 1370     		strb	r3, [r2]
  78:lcd.c         ****   textColor = 0;
 1406              		.loc 1 78 0
 1407 000a 3B4A     		ldr	r2, .L3+4
 1408 000c 0023     		mov	r3, #0
 1409 000e 1370     		strb	r3, [r2]
  79:lcd.c         ****   
  80:lcd.c         ****   //init SPI interface
  81:lcd.c         ****   initSpiForLcd();
 1410              		.loc 1 81 0
 1411 0010 FFF7FEFF 		bl	initSpiForLcd
  82:lcd.c         ****   
  83:lcd.c         ****   //select controller
  84:lcd.c         ****   selectLCD(TRUE);
 1412              		.loc 1 84 0
 1413 0014 0120     		mov	r0, #1
 1414 0016 FFF7FEFF 		bl	selectLCD
  85:lcd.c         **** 
  86:lcd.c         **** 	lcdWrcmd(LCD_CMD_SWRESET);
 1415              		.loc 1 86 0
 1416 001a 0120     		mov	r0, #1
 1417 001c FFF7FEFF 		bl	lcdWrcmd
  87:lcd.c         **** 
  88:lcd.c         **** 	sdelay(1);
 1418              		.loc 1 88 0
 1419 0020 0120     		mov	r0, #1
 1420 0022 FFF7FEFF 		bl	sdelay
  89:lcd.c         **** 	lcdWrcmd(LCD_CMD_SLEEPOUT);
 1421              		.loc 1 89 0
 1422 0026 1120     		mov	r0, #17
 1423 0028 FFF7FEFF 		bl	lcdWrcmd
  90:lcd.c         **** 	lcdWrcmd(LCD_CMD_DISPON);
 1424              		.loc 1 90 0
 1425 002c 2920     		mov	r0, #41
 1426 002e FFF7FEFF 		bl	lcdWrcmd
  91:lcd.c         **** 	lcdWrcmd(LCD_CMD_BSTRON);
 1427              		.loc 1 91 0
 1428 0032 0320     		mov	r0, #3
 1429 0034 FFF7FEFF 		bl	lcdWrcmd
  92:lcd.c         **** 	sdelay(1);
 1430              		.loc 1 92 0
 1431 0038 0120     		mov	r0, #1
 1432 003a FFF7FEFF 		bl	sdelay
  93:lcd.c         **** 		
  94:lcd.c         **** 	lcdWrcmd(LCD_CMD_MADCTL);   //Memory data acces control
 1433              		.loc 1 94 0
 1434 003e 3620     		mov	r0, #54
 1435 0040 FFF7FEFF 		bl	lcdWrcmd
  95:lcd.c         **** 	lcdWrdata(MADCTL_HORIZ);    //X Mirror and BGR format
 1436              		.loc 1 95 0
 1437 0044 4820     		mov	r0, #72
 1438 0046 FFF7FEFF 		bl	lcdWrdata
  96:lcd.c         **** 	lcdWrcmd(LCD_CMD_COLMOD);   //Colour mode
 1439              		.loc 1 96 0
ARM GAS  /cygdrive/c/Users/embedded/AppData/Local/Temp/cc2R7c4N.s 			page 28


 1440 004a 3A20     		mov	r0, #58
 1441 004c FFF7FEFF 		bl	lcdWrcmd
  97:lcd.c         **** 	lcdWrdata(0x02);            //256 colour mode select
 1442              		.loc 1 97 0
 1443 0050 0220     		mov	r0, #2
 1444 0052 FFF7FEFF 		bl	lcdWrdata
  98:lcd.c         **** 	lcdWrcmd(LCD_CMD_INVON);    //Non Invert mode
 1445              		.loc 1 98 0
 1446 0056 2120     		mov	r0, #33
 1447 0058 FFF7FEFF 		bl	lcdWrcmd
  99:lcd.c         **** 
 100:lcd.c         **** 	lcdWrcmd(LCD_CMD_RGBSET);   //LUT write
 1448              		.loc 1 100 0
 1449 005c 2D20     		mov	r0, #45
 1450 005e FFF7FEFF 		bl	lcdWrcmd
 101:lcd.c         ****   lcdWrdata(0);               //Red
 1451              		.loc 1 101 0
 1452 0062 0020     		mov	r0, #0
 1453 0064 FFF7FEFF 		bl	lcdWrdata
 102:lcd.c         ****   lcdWrdata(2);
 1454              		.loc 1 102 0
 1455 0068 0220     		mov	r0, #2
 1456 006a FFF7FEFF 		bl	lcdWrdata
 103:lcd.c         ****   lcdWrdata(4);
 1457              		.loc 1 103 0
 1458 006e 0420     		mov	r0, #4
 1459 0070 FFF7FEFF 		bl	lcdWrdata
 104:lcd.c         ****   lcdWrdata(6);
 1460              		.loc 1 104 0
 1461 0074 0620     		mov	r0, #6
 1462 0076 FFF7FEFF 		bl	lcdWrdata
 105:lcd.c         ****   lcdWrdata(9);
 1463              		.loc 1 105 0
 1464 007a 0920     		mov	r0, #9
 1465 007c FFF7FEFF 		bl	lcdWrdata
 106:lcd.c         ****   lcdWrdata(11);
 1466              		.loc 1 106 0
 1467 0080 0B20     		mov	r0, #11
 1468 0082 FFF7FEFF 		bl	lcdWrdata
 107:lcd.c         ****   lcdWrdata(13);
 1469              		.loc 1 107 0
 1470 0086 0D20     		mov	r0, #13
 1471 0088 FFF7FEFF 		bl	lcdWrdata
 108:lcd.c         ****   lcdWrdata(15);
 1472              		.loc 1 108 0
 1473 008c 0F20     		mov	r0, #15
 1474 008e FFF7FEFF 		bl	lcdWrdata
 109:lcd.c         ****   lcdWrdata(0);               //Green
 1475              		.loc 1 109 0
 1476 0092 0020     		mov	r0, #0
 1477 0094 FFF7FEFF 		bl	lcdWrdata
 110:lcd.c         ****   lcdWrdata(2);
 1478              		.loc 1 110 0
 1479 0098 0220     		mov	r0, #2
 1480 009a FFF7FEFF 		bl	lcdWrdata
 111:lcd.c         ****   lcdWrdata(4);
 1481              		.loc 1 111 0
ARM GAS  /cygdrive/c/Users/embedded/AppData/Local/Temp/cc2R7c4N.s 			page 29


 1482 009e 0420     		mov	r0, #4
 1483 00a0 FFF7FEFF 		bl	lcdWrdata
 112:lcd.c         ****   lcdWrdata(6);
 1484              		.loc 1 112 0
 1485 00a4 0620     		mov	r0, #6
 1486 00a6 FFF7FEFF 		bl	lcdWrdata
 113:lcd.c         ****   lcdWrdata(9);
 1487              		.loc 1 113 0
 1488 00aa 0920     		mov	r0, #9
 1489 00ac FFF7FEFF 		bl	lcdWrdata
 114:lcd.c         ****   lcdWrdata(11);
 1490              		.loc 1 114 0
 1491 00b0 0B20     		mov	r0, #11
 1492 00b2 FFF7FEFF 		bl	lcdWrdata
 115:lcd.c         ****   lcdWrdata(13);
 1493              		.loc 1 115 0
 1494 00b6 0D20     		mov	r0, #13
 1495 00b8 FFF7FEFF 		bl	lcdWrdata
 116:lcd.c         ****   lcdWrdata(15);
 1496              		.loc 1 116 0
 1497 00bc 0F20     		mov	r0, #15
 1498 00be FFF7FEFF 		bl	lcdWrdata
 117:lcd.c         ****   lcdWrdata(0);               //Blue
 1499              		.loc 1 117 0
 1500 00c2 0020     		mov	r0, #0
 1501 00c4 FFF7FEFF 		bl	lcdWrdata
 118:lcd.c         ****   lcdWrdata(6);
 1502              		.loc 1 118 0
 1503 00c8 0620     		mov	r0, #6
 1504 00ca FFF7FEFF 		bl	lcdWrdata
 119:lcd.c         **** 	lcdWrdata(10);
 1505              		.loc 1 119 0
 1506 00ce 0A20     		mov	r0, #10
 1507 00d0 FFF7FEFF 		bl	lcdWrdata
 120:lcd.c         **** 	lcdWrdata(15);
 1508              		.loc 1 120 0
 1509 00d4 0F20     		mov	r0, #15
 1510 00d6 FFF7FEFF 		bl	lcdWrdata
 121:lcd.c         **** 
 122:lcd.c         ****   //deselect controller
 123:lcd.c         ****   selectLCD(FALSE);
 1511              		.loc 1 123 0
 1512 00da 0020     		mov	r0, #0
 1513 00dc FFF7FEFF 		bl	selectLCD
 124:lcd.c         **** 
 125:lcd.c         **** 	lcdContrast(56);
 1514              		.loc 1 125 0
 1515 00e0 3820     		mov	r0, #56
 1516 00e2 FFF7FEFF 		bl	lcdContrast
 126:lcd.c         **** 
 127:lcd.c         **** 	lcdClrscr();
 1517              		.loc 1 127 0
 1518 00e6 FFF7FEFF 		bl	lcdClrscr
 128:lcd.c         **** }
 1519              		.loc 1 128 0
 1520 00ea BD46     		mov	sp, r7
 1521              		@ sp needed for prologue
ARM GAS  /cygdrive/c/Users/embedded/AppData/Local/Temp/cc2R7c4N.s 			page 30


 1522 00ec 80BC     		pop	{r7}
 1523 00ee 01BC     		pop	{r0}
 1524 00f0 0047     		bx	r0
 1525              	.L4:
 1526 00f2 0000     		.align	2
 1527              	.L3:
 1528 00f4 02000000 		.word	bkgColor
 1529 00f8 03000000 		.word	textColor
 1530              	.LFE2:
 1531              		.size	lcdInit, .-lcdInit
 1532              		.align	2
 1533              		.global	lcdClrscr
 1534              		.code 16
 1535              		.thumb_func
 1536              		.type	lcdClrscr, %function
 1537              	lcdClrscr:
 1538              	.LFB3:
 129:lcd.c         **** 
 130:lcd.c         **** /*****************************************************************************
 131:lcd.c         ****  *
 132:lcd.c         ****  * Description:
 133:lcd.c         ****  *    Clear screen (with current background color)
 134:lcd.c         ****  *
 135:lcd.c         ****  ****************************************************************************/
 136:lcd.c         **** 
 137:lcd.c         **** void lcdClrscr(void)
 138:lcd.c         **** {
 1539              		.loc 1 138 0
 1540 00fc 80B5     		push	{r7, lr}
 1541              	.LCFI2:
 1542 00fe 81B0     		sub	sp, sp, #4
 1543              	.LCFI3:
 1544 0100 00AF     		add	r7, sp, #0
 1545              	.LCFI4:
 139:lcd.c         ****   tU32 i;
 140:lcd.c         **** 
 141:lcd.c         **** 	lcd_x = 0;
 1546              		.loc 1 141 0
 1547 0102 164A     		ldr	r2, .L10
 1548 0104 0023     		mov	r3, #0
 1549 0106 1370     		strb	r3, [r2]
 142:lcd.c         ****   lcd_y = 0;
 1550              		.loc 1 142 0
 1551 0108 154A     		ldr	r2, .L10+4
 1552 010a 0023     		mov	r3, #0
 1553 010c 1370     		strb	r3, [r2]
 143:lcd.c         **** 
 144:lcd.c         ****   //select controller
 145:lcd.c         ****   selectLCD(TRUE);   
 1554              		.loc 1 145 0
 1555 010e 0120     		mov	r0, #1
 1556 0110 FFF7FEFF 		bl	selectLCD
 146:lcd.c         **** 
 147:lcd.c         ****   lcdWindow1(255,255,128,128);
 1557              		.loc 1 147 0
 1558 0114 FF20     		mov	r0, #255
 1559 0116 FF21     		mov	r1, #255
ARM GAS  /cygdrive/c/Users/embedded/AppData/Local/Temp/cc2R7c4N.s 			page 31


 1560 0118 8022     		mov	r2, #128
 1561 011a 8023     		mov	r3, #128
 1562 011c 00F0DAFA 		bl	lcdWindow1
 148:lcd.c         ****   
 149:lcd.c         ****   lcdWrcmd(LCD_CMD_RAMWR);    //write memory
 1563              		.loc 1 149 0
 1564 0120 2C20     		mov	r0, #44
 1565 0122 FFF7FEFF 		bl	lcdWrcmd
 150:lcd.c         ****   
 151:lcd.c         ****   for(i=0; i<16900; i++)
 1566              		.loc 1 151 0
 1567 0126 3A1C     		mov	r2, r7
 1568 0128 0023     		mov	r3, #0
 1569 012a 1360     		str	r3, [r2]
 1570 012c 09E0     		b	.L6
 1571              	.L7:
 152:lcd.c         ****     lcdWrdata(bkgColor);
 1572              		.loc 1 152 0
 1573 012e 0D4B     		ldr	r3, .L10+8
 1574 0130 1B78     		ldrb	r3, [r3]
 1575 0132 181C     		mov	r0, r3
 1576 0134 FFF7FEFF 		bl	lcdWrdata
 1577              		.loc 1 151 0
 1578 0138 3A1C     		mov	r2, r7
 1579 013a 3B1C     		mov	r3, r7
 1580 013c 1B68     		ldr	r3, [r3]
 1581 013e 0133     		add	r3, r3, #1
 1582 0140 1360     		str	r3, [r2]
 1583              	.L6:
 1584 0142 3B1C     		mov	r3, r7
 1585 0144 1A68     		ldr	r2, [r3]
 1586 0146 084B     		ldr	r3, .L10+12
 1587 0148 9A42     		cmp	r2, r3
 1588 014a F0D9     		bls	.L7
 153:lcd.c         **** 
 154:lcd.c         ****   //deselect controller
 155:lcd.c         ****   selectLCD(FALSE);
 1589              		.loc 1 155 0
 1590 014c 0020     		mov	r0, #0
 1591 014e FFF7FEFF 		bl	selectLCD
 156:lcd.c         **** }
 1592              		.loc 1 156 0
 1593 0152 BD46     		mov	sp, r7
 1594 0154 01B0     		add	sp, sp, #4
 1595              		@ sp needed for prologue
 1596 0156 80BC     		pop	{r7}
 1597 0158 01BC     		pop	{r0}
 1598 015a 0047     		bx	r0
 1599              	.L11:
 1600              		.align	2
 1601              	.L10:
 1602 015c 00000000 		.word	lcd_x
 1603 0160 01000000 		.word	lcd_y
 1604 0164 02000000 		.word	bkgColor
 1605 0168 03420000 		.word	16899
 1606              	.LFE3:
 1607              		.size	lcdClrscr, .-lcdClrscr
ARM GAS  /cygdrive/c/Users/embedded/AppData/Local/Temp/cc2R7c4N.s 			page 32


 1608              		.align	2
 1609              		.global	lcdOff
 1610              		.code 16
 1611              		.thumb_func
 1612              		.type	lcdOff, %function
 1613              	lcdOff:
 1614              	.LFB4:
 157:lcd.c         **** 
 158:lcd.c         **** /*****************************************************************************
 159:lcd.c         ****  *
 160:lcd.c         ****  * Description:
 161:lcd.c         ****  *    Shut down the LCD controller
 162:lcd.c         ****  *
 163:lcd.c         ****  ****************************************************************************/
 164:lcd.c         **** 
 165:lcd.c         **** void lcdOff(void)
 166:lcd.c         **** {
 1615              		.loc 1 166 0
 1616 016c 80B5     		push	{r7, lr}
 1617              	.LCFI5:
 1618 016e 00AF     		add	r7, sp, #0
 1619              	.LCFI6:
 167:lcd.c         ****   lcdClrscr();
 1620              		.loc 1 167 0
 1621 0170 FFF7FEFF 		bl	lcdClrscr
 168:lcd.c         **** 
 169:lcd.c         ****   //select controller
 170:lcd.c         ****   selectLCD(TRUE);   
 1622              		.loc 1 170 0
 1623 0174 0120     		mov	r0, #1
 1624 0176 FFF7FEFF 		bl	selectLCD
 171:lcd.c         **** 
 172:lcd.c         ****   lcdWrcmd(LCD_CMD_SLEEPIN);
 1625              		.loc 1 172 0
 1626 017a 1020     		mov	r0, #16
 1627 017c FFF7FEFF 		bl	lcdWrcmd
 173:lcd.c         **** 
 174:lcd.c         ****   //deselect controller
 175:lcd.c         ****   selectLCD(FALSE);
 1628              		.loc 1 175 0
 1629 0180 0020     		mov	r0, #0
 1630 0182 FFF7FEFF 		bl	selectLCD
 176:lcd.c         **** }
 1631              		.loc 1 176 0
 1632 0186 BD46     		mov	sp, r7
 1633              		@ sp needed for prologue
 1634 0188 80BC     		pop	{r7}
 1635 018a 01BC     		pop	{r0}
 1636 018c 0047     		bx	r0
 1637              	.LFE4:
 1638              		.size	lcdOff, .-lcdOff
 1639 018e 0000     		.align	2
 1640              		.global	lcdColor
 1641              		.code 16
 1642              		.thumb_func
 1643              		.type	lcdColor, %function
 1644              	lcdColor:
ARM GAS  /cygdrive/c/Users/embedded/AppData/Local/Temp/cc2R7c4N.s 			page 33


 1645              	.LFB5:
 177:lcd.c         **** 
 178:lcd.c         **** /*****************************************************************************
 179:lcd.c         ****  *
 180:lcd.c         ****  * Description:
 181:lcd.c         ****  *    Set current foreground and background color
 182:lcd.c         ****  *
 183:lcd.c         ****  ****************************************************************************/
 184:lcd.c         **** 
 185:lcd.c         **** void lcdColor(tU8 bkg, tU8 text)
 186:lcd.c         **** {
 1646              		.loc 1 186 0
 1647 0190 80B5     		push	{r7, lr}
 1648              	.LCFI7:
 1649 0192 82B0     		sub	sp, sp, #8
 1650              	.LCFI8:
 1651 0194 00AF     		add	r7, sp, #0
 1652              	.LCFI9:
 1653 0196 031C     		mov	r3, r0
 1654 0198 3A1D     		add	r2, r7, #4
 1655 019a 1370     		strb	r3, [r2]
 1656 019c 3A1C     		mov	r2, r7
 1657 019e 0B1C     		add	r3, r1, #0
 1658 01a0 1370     		strb	r3, [r2]
 187:lcd.c         ****   bkgColor  = bkg;
 1659              		.loc 1 187 0
 1660 01a2 064A     		ldr	r2, .L16
 1661 01a4 3B1D     		add	r3, r7, #4
 1662 01a6 1B78     		ldrb	r3, [r3]
 1663 01a8 1370     		strb	r3, [r2]
 188:lcd.c         ****   textColor = text;
 1664              		.loc 1 188 0
 1665 01aa 054A     		ldr	r2, .L16+4
 1666 01ac 3B1C     		mov	r3, r7
 1667 01ae 1B78     		ldrb	r3, [r3]
 1668 01b0 1370     		strb	r3, [r2]
 189:lcd.c         **** }
 1669              		.loc 1 189 0
 1670 01b2 BD46     		mov	sp, r7
 1671 01b4 02B0     		add	sp, sp, #8
 1672              		@ sp needed for prologue
 1673 01b6 80BC     		pop	{r7}
 1674 01b8 01BC     		pop	{r0}
 1675 01ba 0047     		bx	r0
 1676              	.L17:
 1677              		.align	2
 1678              	.L16:
 1679 01bc 02000000 		.word	bkgColor
 1680 01c0 03000000 		.word	textColor
 1681              	.LFE5:
 1682              		.size	lcdColor, .-lcdColor
 1683              		.align	2
 1684              		.global	lcdContrast
 1685              		.code 16
 1686              		.thumb_func
 1687              		.type	lcdContrast, %function
 1688              	lcdContrast:
ARM GAS  /cygdrive/c/Users/embedded/AppData/Local/Temp/cc2R7c4N.s 			page 34


 1689              	.LFB6:
 190:lcd.c         **** 
 191:lcd.c         **** /*****************************************************************************
 192:lcd.c         ****  *
 193:lcd.c         ****  * Description:
 194:lcd.c         ****  *    Set display contrast
 195:lcd.c         ****  *
 196:lcd.c         ****  ****************************************************************************/
 197:lcd.c         **** 
 198:lcd.c         **** void lcdContrast(tU8 cont) //vary between 0 - 127
 199:lcd.c         **** {
 1690              		.loc 1 199 0
 1691 01c4 80B5     		push	{r7, lr}
 1692              	.LCFI10:
 1693 01c6 81B0     		sub	sp, sp, #4
 1694              	.LCFI11:
 1695 01c8 00AF     		add	r7, sp, #0
 1696              	.LCFI12:
 1697 01ca 031C     		mov	r3, r0
 1698 01cc 3A1C     		mov	r2, r7
 1699 01ce 1370     		strb	r3, [r2]
 200:lcd.c         ****   //select controller
 201:lcd.c         ****   selectLCD(TRUE);
 1700              		.loc 1 201 0
 1701 01d0 0120     		mov	r0, #1
 1702 01d2 FFF7FEFF 		bl	selectLCD
 202:lcd.c         **** 
 203:lcd.c         ****   //set contrast cmd.
 204:lcd.c         ****   lcdWrcmd(LCD_CMD_SETCON);
 1703              		.loc 1 204 0
 1704 01d6 2520     		mov	r0, #37
 1705 01d8 FFF7FEFF 		bl	lcdWrcmd
 205:lcd.c         **** 	lcdWrdata(cont);
 1706              		.loc 1 205 0
 1707 01dc 3B1C     		mov	r3, r7
 1708 01de 1B78     		ldrb	r3, [r3]
 1709 01e0 181C     		mov	r0, r3
 1710 01e2 FFF7FEFF 		bl	lcdWrdata
 206:lcd.c         **** 
 207:lcd.c         ****   //deselect controller
 208:lcd.c         ****   selectLCD(FALSE);
 1711              		.loc 1 208 0
 1712 01e6 0020     		mov	r0, #0
 1713 01e8 FFF7FEFF 		bl	selectLCD
 209:lcd.c         **** }
 1714              		.loc 1 209 0
 1715 01ec BD46     		mov	sp, r7
 1716 01ee 01B0     		add	sp, sp, #4
 1717              		@ sp needed for prologue
 1718 01f0 80BC     		pop	{r7}
 1719 01f2 01BC     		pop	{r0}
 1720 01f4 0047     		bx	r0
 1721              	.LFE6:
 1722              		.size	lcdContrast, .-lcdContrast
 1723 01f6 0000     		.align	2
 1724              		.global	lcdRect
 1725              		.code 16
ARM GAS  /cygdrive/c/Users/embedded/AppData/Local/Temp/cc2R7c4N.s 			page 35


 1726              		.thumb_func
 1727              		.type	lcdRect, %function
 1728              	lcdRect:
 1729              	.LFB7:
 210:lcd.c         **** 
 211:lcd.c         **** /*****************************************************************************
 212:lcd.c         ****  *
 213:lcd.c         ****  * Description:
 214:lcd.c         ****  *    Draw a rectangular area with specified color.
 215:lcd.c         ****  *
 216:lcd.c         ****  ****************************************************************************/
 217:lcd.c         **** 
 218:lcd.c         **** void lcdRect(tU8 x, tU8 y, tU8 xLen, tU8 yLen, tU8 color)
 219:lcd.c         **** {
 1730              		.loc 1 219 0
 1731 01f8 F0B5     		push	{r4, r5, r6, r7, lr}
 1732              	.LCFI13:
 1733 01fa 87B0     		sub	sp, sp, #28
 1734              	.LCFI14:
 1735 01fc 00AF     		add	r7, sp, #0
 1736              	.LCFI15:
 1737 01fe 141C     		mov	r4, r2
 1738 0200 1D1C     		mov	r5, r3
 1739 0202 3E6B     		ldr	r6, [r7, #48]
 1740 0204 3A1C     		mov	r2, r7
 1741 0206 1032     		add	r2, r2, #16
 1742 0208 031C     		add	r3, r0, #0
 1743 020a 1370     		strb	r3, [r2]
 1744 020c 3A1C     		mov	r2, r7
 1745 020e 0C32     		add	r2, r2, #12
 1746 0210 0B1C     		add	r3, r1, #0
 1747 0212 1370     		strb	r3, [r2]
 1748 0214 3A1C     		mov	r2, r7
 1749 0216 0832     		add	r2, r2, #8
 1750 0218 231C     		add	r3, r4, #0
 1751 021a 1370     		strb	r3, [r2]
 1752 021c 3A1D     		add	r2, r7, #4
 1753 021e 2B1C     		add	r3, r5, #0
 1754 0220 1370     		strb	r3, [r2]
 1755 0222 3A1C     		mov	r2, r7
 1756 0224 331C     		add	r3, r6, #0
 1757 0226 1370     		strb	r3, [r2]
 220:lcd.c         ****   tU32 i;
 221:lcd.c         ****   tU32 len;
 222:lcd.c         **** 
 223:lcd.c         ****   //select controller
 224:lcd.c         ****   selectLCD(TRUE);   
 1758              		.loc 1 224 0
 1759 0228 0120     		mov	r0, #1
 1760 022a FFF7FEFF 		bl	selectLCD
 225:lcd.c         **** 
 226:lcd.c         ****   lcdWindow1(x,y,x+xLen-1,y+yLen-1);
 1761              		.loc 1 226 0
 1762 022e 3B1C     		mov	r3, r7
 1763 0230 1033     		add	r3, r3, #16
 1764 0232 1878     		ldrb	r0, [r3]
 1765 0234 3B1C     		mov	r3, r7
ARM GAS  /cygdrive/c/Users/embedded/AppData/Local/Temp/cc2R7c4N.s 			page 36


 1766 0236 0C33     		add	r3, r3, #12
 1767 0238 1C78     		ldrb	r4, [r3]
 1768 023a 3B1C     		mov	r3, r7
 1769 023c 1033     		add	r3, r3, #16
 1770 023e 3A1C     		mov	r2, r7
 1771 0240 0832     		add	r2, r2, #8
 1772 0242 1978     		ldrb	r1, [r3]
 1773 0244 1378     		ldrb	r3, [r2]
 1774 0246 CB18     		add	r3, r1, r3
 1775 0248 1B06     		lsl	r3, r3, #24
 1776 024a 1B0E     		lsr	r3, r3, #24
 1777 024c 013B     		sub	r3, r3, #1
 1778 024e 1B06     		lsl	r3, r3, #24
 1779 0250 1B0E     		lsr	r3, r3, #24
 1780 0252 1D1C     		mov	r5, r3
 1781 0254 3B1C     		mov	r3, r7
 1782 0256 0C33     		add	r3, r3, #12
 1783 0258 3A1D     		add	r2, r7, #4
 1784 025a 1978     		ldrb	r1, [r3]
 1785 025c 1378     		ldrb	r3, [r2]
 1786 025e CB18     		add	r3, r1, r3
 1787 0260 1B06     		lsl	r3, r3, #24
 1788 0262 1B0E     		lsr	r3, r3, #24
 1789 0264 013B     		sub	r3, r3, #1
 1790 0266 1B06     		lsl	r3, r3, #24
 1791 0268 1B0E     		lsr	r3, r3, #24
 1792 026a 211C     		mov	r1, r4
 1793 026c 2A1C     		mov	r2, r5
 1794 026e 00F031FA 		bl	lcdWindow1
 227:lcd.c         ****   
 228:lcd.c         ****   lcdWrcmd(LCD_CMD_RAMWR);    //write memory
 1795              		.loc 1 228 0
 1796 0272 2C20     		mov	r0, #44
 1797 0274 FFF7FEFF 		bl	lcdWrcmd
 229:lcd.c         ****   
 230:lcd.c         ****   len = xLen*yLen;
 1798              		.loc 1 230 0
 1799 0278 3B1C     		mov	r3, r7
 1800 027a 0833     		add	r3, r3, #8
 1801 027c 1A78     		ldrb	r2, [r3]
 1802 027e 3B1D     		add	r3, r7, #4
 1803 0280 1B78     		ldrb	r3, [r3]
 1804 0282 5A43     		mul	r2, r3
 1805 0284 3B1C     		mov	r3, r7
 1806 0286 1833     		add	r3, r3, #24
 1807 0288 1A60     		str	r2, [r3]
 231:lcd.c         ****   for(i=0; i<len; i++)
 1808              		.loc 1 231 0
 1809 028a 3A1C     		mov	r2, r7
 1810 028c 1432     		add	r2, r2, #20
 1811 028e 0023     		mov	r3, #0
 1812 0290 1360     		str	r3, [r2]
 1813 0292 0BE0     		b	.L21
 1814              	.L22:
 232:lcd.c         ****     lcdWrdata(color);
 1815              		.loc 1 232 0
 1816 0294 3B1C     		mov	r3, r7
ARM GAS  /cygdrive/c/Users/embedded/AppData/Local/Temp/cc2R7c4N.s 			page 37


 1817 0296 1B78     		ldrb	r3, [r3]
 1818 0298 181C     		mov	r0, r3
 1819 029a FFF7FEFF 		bl	lcdWrdata
 1820              		.loc 1 231 0
 1821 029e 3A1C     		mov	r2, r7
 1822 02a0 1432     		add	r2, r2, #20
 1823 02a2 3B1C     		mov	r3, r7
 1824 02a4 1433     		add	r3, r3, #20
 1825 02a6 1B68     		ldr	r3, [r3]
 1826 02a8 0133     		add	r3, r3, #1
 1827 02aa 1360     		str	r3, [r2]
 1828              	.L21:
 1829 02ac 3B1C     		mov	r3, r7
 1830 02ae 1433     		add	r3, r3, #20
 1831 02b0 3A1C     		mov	r2, r7
 1832 02b2 1832     		add	r2, r2, #24
 1833 02b4 1968     		ldr	r1, [r3]
 1834 02b6 1368     		ldr	r3, [r2]
 1835 02b8 9942     		cmp	r1, r3
 1836 02ba EBD3     		bcc	.L22
 233:lcd.c         **** 
 234:lcd.c         ****   //deselect controller
 235:lcd.c         ****   selectLCD(FALSE);
 1837              		.loc 1 235 0
 1838 02bc 0020     		mov	r0, #0
 1839 02be FFF7FEFF 		bl	selectLCD
 236:lcd.c         **** }
 1840              		.loc 1 236 0
 1841 02c2 BD46     		mov	sp, r7
 1842 02c4 07B0     		add	sp, sp, #28
 1843              		@ sp needed for prologue
 1844 02c6 F0BC     		pop	{r4, r5, r6, r7}
 1845 02c8 01BC     		pop	{r0}
 1846 02ca 0047     		bx	r0
 1847              	.LFE7:
 1848              		.size	lcdRect, .-lcdRect
 1849              		.align	2
 1850              		.global	lcdRectBrd
 1851              		.code 16
 1852              		.thumb_func
 1853              		.type	lcdRectBrd, %function
 1854              	lcdRectBrd:
 1855              	.LFB8:
 237:lcd.c         **** 
 238:lcd.c         **** /*****************************************************************************
 239:lcd.c         ****  *
 240:lcd.c         ****  * Description:
 241:lcd.c         ****  *    Draw rectangular area with different boardser colors. Currently used
 242:lcd.c         ****  *    by example game.
 243:lcd.c         ****  *
 244:lcd.c         ****  ****************************************************************************/
 245:lcd.c         **** 
 246:lcd.c         **** void lcdRectBrd(tU8 x, tU8 y, tU8 xLen, tU8 yLen, tU8 color1, tU8 color2, tU8 color3)
 247:lcd.c         **** {
 1856              		.loc 1 247 0
 1857 02cc F0B5     		push	{r4, r5, r6, r7, lr}
 1858              	.LCFI16:
ARM GAS  /cygdrive/c/Users/embedded/AppData/Local/Temp/cc2R7c4N.s 			page 38


 1859 02ce 4746     		mov	r7, r8
 1860 02d0 80B4     		push	{r7}
 1861              	.LCFI17:
 1862 02d2 89B0     		sub	sp, sp, #36
 1863              	.LCFI18:
 1864 02d4 00AF     		add	r7, sp, #0
 1865              	.LCFI19:
 1866 02d6 141C     		mov	r4, r2
 1867 02d8 1D1C     		mov	r5, r3
 1868 02da FE6B     		ldr	r6, [r7, #60]
 1869 02dc 3B1C     		mov	r3, r7
 1870 02de 3C33     		add	r3, r3, #60
 1871 02e0 5A68     		ldr	r2, [r3, #4]
 1872 02e2 9446     		mov	ip, r2
 1873 02e4 3B1C     		mov	r3, r7
 1874 02e6 3C33     		add	r3, r3, #60
 1875 02e8 9A68     		ldr	r2, [r3, #8]
 1876 02ea 9046     		mov	r8, r2
 1877 02ec 3A1C     		mov	r2, r7
 1878 02ee 1832     		add	r2, r2, #24
 1879 02f0 031C     		add	r3, r0, #0
 1880 02f2 1370     		strb	r3, [r2]
 1881 02f4 3A1C     		mov	r2, r7
 1882 02f6 1432     		add	r2, r2, #20
 1883 02f8 0B1C     		add	r3, r1, #0
 1884 02fa 1370     		strb	r3, [r2]
 1885 02fc 3A1C     		mov	r2, r7
 1886 02fe 1032     		add	r2, r2, #16
 1887 0300 231C     		add	r3, r4, #0
 1888 0302 1370     		strb	r3, [r2]
 1889 0304 3A1C     		mov	r2, r7
 1890 0306 0C32     		add	r2, r2, #12
 1891 0308 2B1C     		add	r3, r5, #0
 1892 030a 1370     		strb	r3, [r2]
 1893 030c 3A1C     		mov	r2, r7
 1894 030e 0832     		add	r2, r2, #8
 1895 0310 331C     		add	r3, r6, #0
 1896 0312 1370     		strb	r3, [r2]
 1897 0314 3A1D     		add	r2, r7, #4
 1898 0316 6346     		mov	r3, ip
 1899 0318 1370     		strb	r3, [r2]
 1900 031a 3A1C     		mov	r2, r7
 1901 031c 4346     		mov	r3, r8
 1902 031e 1370     		strb	r3, [r2]
 248:lcd.c         ****   tS32 i,j;
 249:lcd.c         **** 
 250:lcd.c         ****   //select controller
 251:lcd.c         ****   selectLCD(TRUE);   
 1903              		.loc 1 251 0
 1904 0320 0120     		mov	r0, #1
 1905 0322 FFF7FEFF 		bl	selectLCD
 252:lcd.c         **** 
 253:lcd.c         ****   lcdWindow1(x,y,x+xLen-1,y+yLen-1);
 1906              		.loc 1 253 0
 1907 0326 3B1C     		mov	r3, r7
 1908 0328 1833     		add	r3, r3, #24
 1909 032a 1878     		ldrb	r0, [r3]
ARM GAS  /cygdrive/c/Users/embedded/AppData/Local/Temp/cc2R7c4N.s 			page 39


 1910 032c 3B1C     		mov	r3, r7
 1911 032e 1433     		add	r3, r3, #20
 1912 0330 1C78     		ldrb	r4, [r3]
 1913 0332 3B1C     		mov	r3, r7
 1914 0334 1833     		add	r3, r3, #24
 1915 0336 3A1C     		mov	r2, r7
 1916 0338 1032     		add	r2, r2, #16
 1917 033a 1978     		ldrb	r1, [r3]
 1918 033c 1378     		ldrb	r3, [r2]
 1919 033e CB18     		add	r3, r1, r3
 1920 0340 1B06     		lsl	r3, r3, #24
 1921 0342 1B0E     		lsr	r3, r3, #24
 1922 0344 013B     		sub	r3, r3, #1
 1923 0346 1B06     		lsl	r3, r3, #24
 1924 0348 1B0E     		lsr	r3, r3, #24
 1925 034a 1D1C     		mov	r5, r3
 1926 034c 3B1C     		mov	r3, r7
 1927 034e 1433     		add	r3, r3, #20
 1928 0350 3A1C     		mov	r2, r7
 1929 0352 0C32     		add	r2, r2, #12
 1930 0354 1978     		ldrb	r1, [r3]
 1931 0356 1378     		ldrb	r3, [r2]
 1932 0358 CB18     		add	r3, r1, r3
 1933 035a 1B06     		lsl	r3, r3, #24
 1934 035c 1B0E     		lsr	r3, r3, #24
 1935 035e 013B     		sub	r3, r3, #1
 1936 0360 1B06     		lsl	r3, r3, #24
 1937 0362 1B0E     		lsr	r3, r3, #24
 1938 0364 211C     		mov	r1, r4
 1939 0366 2A1C     		mov	r2, r5
 1940 0368 00F0B4F9 		bl	lcdWindow1
 254:lcd.c         ****   
 255:lcd.c         ****   lcdWrcmd(LCD_CMD_RAMWR);    //write memory
 1941              		.loc 1 255 0
 1942 036c 2C20     		mov	r0, #44
 1943 036e FFF7FEFF 		bl	lcdWrcmd
 256:lcd.c         ****   
 257:lcd.c         ****   for(i=0; i<xLen; i++)
 1944              		.loc 1 257 0
 1945 0372 3A1C     		mov	r2, r7
 1946 0374 1C32     		add	r2, r2, #28
 1947 0376 0023     		mov	r3, #0
 1948 0378 1360     		str	r3, [r2]
 1949 037a 0BE0     		b	.L26
 1950              	.L27:
 258:lcd.c         ****     lcdWrdata(color2);
 1951              		.loc 1 258 0
 1952 037c 3B1D     		add	r3, r7, #4
 1953 037e 1B78     		ldrb	r3, [r3]
 1954 0380 181C     		mov	r0, r3
 1955 0382 FFF7FEFF 		bl	lcdWrdata
 1956              		.loc 1 257 0
 1957 0386 3A1C     		mov	r2, r7
 1958 0388 1C32     		add	r2, r2, #28
 1959 038a 3B1C     		mov	r3, r7
 1960 038c 1C33     		add	r3, r3, #28
 1961 038e 1B68     		ldr	r3, [r3]
ARM GAS  /cygdrive/c/Users/embedded/AppData/Local/Temp/cc2R7c4N.s 			page 40


 1962 0390 0133     		add	r3, r3, #1
 1963 0392 1360     		str	r3, [r2]
 1964              	.L26:
 1965 0394 3B1C     		mov	r3, r7
 1966 0396 1033     		add	r3, r3, #16
 1967 0398 1A78     		ldrb	r2, [r3]
 1968 039a 3B1C     		mov	r3, r7
 1969 039c 1C33     		add	r3, r3, #28
 1970 039e 1B68     		ldr	r3, [r3]
 1971 03a0 9A42     		cmp	r2, r3
 1972 03a2 EBDC     		bgt	.L27
 259:lcd.c         ****   for(j=1; j<(yLen-2); j++)
 1973              		.loc 1 259 0
 1974 03a4 3A1C     		mov	r2, r7
 1975 03a6 2032     		add	r2, r2, #32
 1976 03a8 0123     		mov	r3, #1
 1977 03aa 1360     		str	r3, [r2]
 1978 03ac 2BE0     		b	.L29
 1979              	.L30:
 260:lcd.c         ****   {
 261:lcd.c         ****     lcdWrdata(color2);
 1980              		.loc 1 261 0
 1981 03ae 3B1D     		add	r3, r7, #4
 1982 03b0 1B78     		ldrb	r3, [r3]
 1983 03b2 181C     		mov	r0, r3
 1984 03b4 FFF7FEFF 		bl	lcdWrdata
 262:lcd.c         ****     for(i=0; i<(xLen-2); i++)
 1985              		.loc 1 262 0
 1986 03b8 3A1C     		mov	r2, r7
 1987 03ba 1C32     		add	r2, r2, #28
 1988 03bc 0023     		mov	r3, #0
 1989 03be 1360     		str	r3, [r2]
 1990 03c0 0CE0     		b	.L31
 1991              	.L32:
 263:lcd.c         ****       lcdWrdata(color1);
 1992              		.loc 1 263 0
 1993 03c2 3B1C     		mov	r3, r7
 1994 03c4 0833     		add	r3, r3, #8
 1995 03c6 1B78     		ldrb	r3, [r3]
 1996 03c8 181C     		mov	r0, r3
 1997 03ca FFF7FEFF 		bl	lcdWrdata
 1998              		.loc 1 262 0
 1999 03ce 3A1C     		mov	r2, r7
 2000 03d0 1C32     		add	r2, r2, #28
 2001 03d2 3B1C     		mov	r3, r7
 2002 03d4 1C33     		add	r3, r3, #28
 2003 03d6 1B68     		ldr	r3, [r3]
 2004 03d8 0133     		add	r3, r3, #1
 2005 03da 1360     		str	r3, [r2]
 2006              	.L31:
 2007 03dc 3B1C     		mov	r3, r7
 2008 03de 1033     		add	r3, r3, #16
 2009 03e0 1B78     		ldrb	r3, [r3]
 2010 03e2 9A1E     		sub	r2, r3, #2
 2011 03e4 3B1C     		mov	r3, r7
 2012 03e6 1C33     		add	r3, r3, #28
 2013 03e8 1B68     		ldr	r3, [r3]
ARM GAS  /cygdrive/c/Users/embedded/AppData/Local/Temp/cc2R7c4N.s 			page 41


 2014 03ea 9A42     		cmp	r2, r3
 2015 03ec E9DC     		bgt	.L32
 264:lcd.c         ****     lcdWrdata(color3);
 2016              		.loc 1 264 0
 2017 03ee 3B1C     		mov	r3, r7
 2018 03f0 1B78     		ldrb	r3, [r3]
 2019 03f2 181C     		mov	r0, r3
 2020 03f4 FFF7FEFF 		bl	lcdWrdata
 2021              		.loc 1 259 0
 2022 03f8 3A1C     		mov	r2, r7
 2023 03fa 2032     		add	r2, r2, #32
 2024 03fc 3B1C     		mov	r3, r7
 2025 03fe 2033     		add	r3, r3, #32
 2026 0400 1B68     		ldr	r3, [r3]
 2027 0402 0133     		add	r3, r3, #1
 2028 0404 1360     		str	r3, [r2]
 2029              	.L29:
 2030 0406 3B1C     		mov	r3, r7
 2031 0408 0C33     		add	r3, r3, #12
 2032 040a 1B78     		ldrb	r3, [r3]
 2033 040c 9A1E     		sub	r2, r3, #2
 2034 040e 3B1C     		mov	r3, r7
 2035 0410 2033     		add	r3, r3, #32
 2036 0412 1B68     		ldr	r3, [r3]
 2037 0414 9A42     		cmp	r2, r3
 2038 0416 CADC     		bgt	.L30
 265:lcd.c         ****   }
 266:lcd.c         ****   for(i=0; i<xLen; i++)
 2039              		.loc 1 266 0
 2040 0418 3A1C     		mov	r2, r7
 2041 041a 1C32     		add	r2, r2, #28
 2042 041c 0023     		mov	r3, #0
 2043 041e 1360     		str	r3, [r2]
 2044 0420 0BE0     		b	.L35
 2045              	.L36:
 267:lcd.c         ****     lcdWrdata(color3);
 2046              		.loc 1 267 0
 2047 0422 3B1C     		mov	r3, r7
 2048 0424 1B78     		ldrb	r3, [r3]
 2049 0426 181C     		mov	r0, r3
 2050 0428 FFF7FEFF 		bl	lcdWrdata
 2051              		.loc 1 266 0
 2052 042c 3A1C     		mov	r2, r7
 2053 042e 1C32     		add	r2, r2, #28
 2054 0430 3B1C     		mov	r3, r7
 2055 0432 1C33     		add	r3, r3, #28
 2056 0434 1B68     		ldr	r3, [r3]
 2057 0436 0133     		add	r3, r3, #1
 2058 0438 1360     		str	r3, [r2]
 2059              	.L35:
 2060 043a 3B1C     		mov	r3, r7
 2061 043c 1033     		add	r3, r3, #16
 2062 043e 1A78     		ldrb	r2, [r3]
 2063 0440 3B1C     		mov	r3, r7
 2064 0442 1C33     		add	r3, r3, #28
 2065 0444 1B68     		ldr	r3, [r3]
 2066 0446 9A42     		cmp	r2, r3
ARM GAS  /cygdrive/c/Users/embedded/AppData/Local/Temp/cc2R7c4N.s 			page 42


 2067 0448 EBDC     		bgt	.L36
 268:lcd.c         **** 
 269:lcd.c         ****   //deselect controller
 270:lcd.c         ****   selectLCD(FALSE);
 2068              		.loc 1 270 0
 2069 044a 0020     		mov	r0, #0
 2070 044c FFF7FEFF 		bl	selectLCD
 271:lcd.c         **** }
 2071              		.loc 1 271 0
 2072 0450 BD46     		mov	sp, r7
 2073 0452 09B0     		add	sp, sp, #36
 2074              		@ sp needed for prologue
 2075 0454 04BC     		pop	{r2}
 2076 0456 9046     		mov	r8, r2
 2077 0458 F0BC     		pop	{r4, r5, r6, r7}
 2078 045a 01BC     		pop	{r0}
 2079 045c 0047     		bx	r0
 2080              	.LFE8:
 2081              		.size	lcdRectBrd, .-lcdRectBrd
 2082 045e 0000     		.align	2
 2083              		.global	lcdIcon
 2084              		.code 16
 2085              		.thumb_func
 2086              		.type	lcdIcon, %function
 2087              	lcdIcon:
 2088              	.LFB9:
 272:lcd.c         **** 
 273:lcd.c         **** /*****************************************************************************
 274:lcd.c         ****  *
 275:lcd.c         ****  * Description:
 276:lcd.c         ****  *    Draw rectangular area from bitmap. Specify xy-position and xy-length.
 277:lcd.c         ****  *    Compressed format is supported.
 278:lcd.c         ****  *
 279:lcd.c         ****  *    In uncompressed color mode, pData points to an area of xLen * yLen
 280:lcd.c         ****  *    bytes with the icon.
 281:lcd.c         ****  *    In compressed mode the escapeChar is used to denote that the next
 282:lcd.c         ****  *    two bytes contain a length and a color (run length encoding)
 283:lcd.c         ****  *    Note that is is still possible to specify the color value that
 284:lcd.c         ****  *    equals the escape value in a compressed string.
 285:lcd.c         ****  *
 286:lcd.c         ****  ****************************************************************************/
 287:lcd.c         **** 
 288:lcd.c         **** void lcdIcon(tU8 x, tU8 y, tU8 xLen, tU8 yLen, tU8 compressionOn, tU8 escapeChar, const tU8* pData)
 289:lcd.c         **** {
 2089              		.loc 1 289 0
 2090 0460 F0B5     		push	{r4, r5, r6, r7, lr}
 2091              	.LCFI20:
 2092 0462 89B0     		sub	sp, sp, #36
 2093              	.LCFI21:
 2094 0464 00AF     		add	r7, sp, #0
 2095              	.LCFI22:
 2096 0466 141C     		mov	r4, r2
 2097 0468 1D1C     		mov	r5, r3
 2098 046a BE6B     		ldr	r6, [r7, #56]
 2099 046c 3B1C     		mov	r3, r7
 2100 046e 3833     		add	r3, r3, #56
 2101 0470 5A68     		ldr	r2, [r3, #4]
ARM GAS  /cygdrive/c/Users/embedded/AppData/Local/Temp/cc2R7c4N.s 			page 43


 2102 0472 9446     		mov	ip, r2
 2103 0474 3A1C     		mov	r2, r7
 2104 0476 1432     		add	r2, r2, #20
 2105 0478 031C     		add	r3, r0, #0
 2106 047a 1370     		strb	r3, [r2]
 2107 047c 3A1C     		mov	r2, r7
 2108 047e 1032     		add	r2, r2, #16
 2109 0480 0B1C     		add	r3, r1, #0
 2110 0482 1370     		strb	r3, [r2]
 2111 0484 3A1C     		mov	r2, r7
 2112 0486 0C32     		add	r2, r2, #12
 2113 0488 231C     		add	r3, r4, #0
 2114 048a 1370     		strb	r3, [r2]
 2115 048c 3A1C     		mov	r2, r7
 2116 048e 0832     		add	r2, r2, #8
 2117 0490 2B1C     		add	r3, r5, #0
 2118 0492 1370     		strb	r3, [r2]
 2119 0494 3A1D     		add	r2, r7, #4
 2120 0496 331C     		add	r3, r6, #0
 2121 0498 1370     		strb	r3, [r2]
 2122 049a 3A1C     		mov	r2, r7
 2123 049c 6346     		mov	r3, ip
 2124 049e 1370     		strb	r3, [r2]
 290:lcd.c         ****   tU32 i,j;
 291:lcd.c         ****   tU32 len;
 292:lcd.c         **** 
 293:lcd.c         ****   //select controller
 294:lcd.c         ****   selectLCD(TRUE);   
 2125              		.loc 1 294 0
 2126 04a0 0120     		mov	r0, #1
 2127 04a2 FFF7FEFF 		bl	selectLCD
 295:lcd.c         **** 
 296:lcd.c         ****   lcdWindow1(x,y,x+xLen-1,y+yLen-1);
 2128              		.loc 1 296 0
 2129 04a6 3B1C     		mov	r3, r7
 2130 04a8 1433     		add	r3, r3, #20
 2131 04aa 1878     		ldrb	r0, [r3]
 2132 04ac 3B1C     		mov	r3, r7
 2133 04ae 1033     		add	r3, r3, #16
 2134 04b0 1C78     		ldrb	r4, [r3]
 2135 04b2 3B1C     		mov	r3, r7
 2136 04b4 1433     		add	r3, r3, #20
 2137 04b6 3A1C     		mov	r2, r7
 2138 04b8 0C32     		add	r2, r2, #12
 2139 04ba 1978     		ldrb	r1, [r3]
 2140 04bc 1378     		ldrb	r3, [r2]
 2141 04be CB18     		add	r3, r1, r3
 2142 04c0 1B06     		lsl	r3, r3, #24
 2143 04c2 1B0E     		lsr	r3, r3, #24
 2144 04c4 013B     		sub	r3, r3, #1
 2145 04c6 1B06     		lsl	r3, r3, #24
 2146 04c8 1B0E     		lsr	r3, r3, #24
 2147 04ca 1D1C     		mov	r5, r3
 2148 04cc 3B1C     		mov	r3, r7
 2149 04ce 1033     		add	r3, r3, #16
 2150 04d0 3A1C     		mov	r2, r7
 2151 04d2 0832     		add	r2, r2, #8
ARM GAS  /cygdrive/c/Users/embedded/AppData/Local/Temp/cc2R7c4N.s 			page 44


 2152 04d4 1978     		ldrb	r1, [r3]
 2153 04d6 1378     		ldrb	r3, [r2]
 2154 04d8 CB18     		add	r3, r1, r3
 2155 04da 1B06     		lsl	r3, r3, #24
 2156 04dc 1B0E     		lsr	r3, r3, #24
 2157 04de 013B     		sub	r3, r3, #1
 2158 04e0 1B06     		lsl	r3, r3, #24
 2159 04e2 1B0E     		lsr	r3, r3, #24
 2160 04e4 211C     		mov	r1, r4
 2161 04e6 2A1C     		mov	r2, r5
 2162 04e8 00F0F4F8 		bl	lcdWindow1
 297:lcd.c         ****   
 298:lcd.c         ****   lcdWrcmd(LCD_CMD_RAMWR);    //write memory
 2163              		.loc 1 298 0
 2164 04ec 2C20     		mov	r0, #44
 2165 04ee FFF7FEFF 		bl	lcdWrcmd
 299:lcd.c         ****   
 300:lcd.c         ****   len = xLen*yLen;
 2166              		.loc 1 300 0
 2167 04f2 3B1C     		mov	r3, r7
 2168 04f4 0C33     		add	r3, r3, #12
 2169 04f6 1A78     		ldrb	r2, [r3]
 2170 04f8 3B1C     		mov	r3, r7
 2171 04fa 0833     		add	r3, r3, #8
 2172 04fc 1B78     		ldrb	r3, [r3]
 2173 04fe 5A43     		mul	r2, r3
 2174 0500 3B1C     		mov	r3, r7
 2175 0502 2033     		add	r3, r3, #32
 2176 0504 1A60     		str	r2, [r3]
 301:lcd.c         ****   if (compressionOn == FALSE)
 2177              		.loc 1 301 0
 2178 0506 3B1D     		add	r3, r7, #4
 2179 0508 1B78     		ldrb	r3, [r3]
 2180 050a 002B     		cmp	r3, #0
 2181 050c 00D0     		beq	.LCB760
 2182 050e 83E0     		b	.L54	@long jump
 2183              	.LCB760:
 302:lcd.c         ****   {
 303:lcd.c         ****     for(i=0; i<len; i++)
 2184              		.loc 1 303 0
 2185 0510 3A1C     		mov	r2, r7
 2186 0512 1832     		add	r2, r2, #24
 2187 0514 0023     		mov	r3, #0
 2188 0516 1360     		str	r3, [r2]
 2189 0518 15E0     		b	.L42
 2190              	.L43:
 304:lcd.c         ****       lcdWrdata(*pData++);
 2191              		.loc 1 304 0
 2192 051a 3B1C     		mov	r3, r7
 2193 051c 3833     		add	r3, r3, #56
 2194 051e 9B68     		ldr	r3, [r3, #8]
 2195 0520 1B78     		ldrb	r3, [r3]
 2196 0522 191C     		mov	r1, r3
 2197 0524 3A1C     		mov	r2, r7
 2198 0526 3832     		add	r2, r2, #56
 2199 0528 3B1C     		mov	r3, r7
 2200 052a 3833     		add	r3, r3, #56
ARM GAS  /cygdrive/c/Users/embedded/AppData/Local/Temp/cc2R7c4N.s 			page 45


 2201 052c 9B68     		ldr	r3, [r3, #8]
 2202 052e 0133     		add	r3, r3, #1
 2203 0530 9360     		str	r3, [r2, #8]
 2204 0532 081C     		mov	r0, r1
 2205 0534 FFF7FEFF 		bl	lcdWrdata
 2206              		.loc 1 303 0
 2207 0538 3A1C     		mov	r2, r7
 2208 053a 1832     		add	r2, r2, #24
 2209 053c 3B1C     		mov	r3, r7
 2210 053e 1833     		add	r3, r3, #24
 2211 0540 1B68     		ldr	r3, [r3]
 2212 0542 0133     		add	r3, r3, #1
 2213 0544 1360     		str	r3, [r2]
 2214              	.L42:
 2215 0546 3B1C     		mov	r3, r7
 2216 0548 1833     		add	r3, r3, #24
 2217 054a 3A1C     		mov	r2, r7
 2218 054c 2032     		add	r2, r2, #32
 2219 054e 1968     		ldr	r1, [r3]
 2220 0550 1368     		ldr	r3, [r2]
 2221 0552 9942     		cmp	r1, r3
 2222 0554 E1D3     		bcc	.L43
 2223 0556 64E0     		b	.L45
 2224              	.L47:
 305:lcd.c         ****   }
 306:lcd.c         ****   else
 307:lcd.c         ****     while(len > 0)
 308:lcd.c         ****     {
 309:lcd.c         ****       if(*pData == escapeChar)
 2225              		.loc 1 309 0
 2226 0558 3B1C     		mov	r3, r7
 2227 055a 3833     		add	r3, r3, #56
 2228 055c 9B68     		ldr	r3, [r3, #8]
 2229 055e 1A78     		ldrb	r2, [r3]
 2230 0560 3B1C     		mov	r3, r7
 2231 0562 1B78     		ldrb	r3, [r3]
 2232 0564 9342     		cmp	r3, r2
 2233 0566 41D1     		bne	.L48
 310:lcd.c         ****       {
 311:lcd.c         ****         pData++;
 2234              		.loc 1 311 0
 2235 0568 3A1C     		mov	r2, r7
 2236 056a 3832     		add	r2, r2, #56
 2237 056c 3B1C     		mov	r3, r7
 2238 056e 3833     		add	r3, r3, #56
 2239 0570 9B68     		ldr	r3, [r3, #8]
 2240 0572 0133     		add	r3, r3, #1
 2241 0574 9360     		str	r3, [r2, #8]
 312:lcd.c         ****         j = *pData++;
 2242              		.loc 1 312 0
 2243 0576 3B1C     		mov	r3, r7
 2244 0578 3833     		add	r3, r3, #56
 2245 057a 9B68     		ldr	r3, [r3, #8]
 2246 057c 1A78     		ldrb	r2, [r3]
 2247 057e 3B1C     		mov	r3, r7
 2248 0580 1C33     		add	r3, r3, #28
 2249 0582 1A60     		str	r2, [r3]
ARM GAS  /cygdrive/c/Users/embedded/AppData/Local/Temp/cc2R7c4N.s 			page 46


 2250 0584 3A1C     		mov	r2, r7
 2251 0586 3832     		add	r2, r2, #56
 2252 0588 3B1C     		mov	r3, r7
 2253 058a 3833     		add	r3, r3, #56
 2254 058c 9B68     		ldr	r3, [r3, #8]
 2255 058e 0133     		add	r3, r3, #1
 2256 0590 9360     		str	r3, [r2, #8]
 313:lcd.c         ****         for(i=0;i<j;i++)
 2257              		.loc 1 313 0
 2258 0592 3A1C     		mov	r2, r7
 2259 0594 1832     		add	r2, r2, #24
 2260 0596 0023     		mov	r3, #0
 2261 0598 1360     		str	r3, [r2]
 2262 059a 0DE0     		b	.L50
 2263              	.L51:
 314:lcd.c         ****           lcdWrdata(*pData);
 2264              		.loc 1 314 0
 2265 059c 3B1C     		mov	r3, r7
 2266 059e 3833     		add	r3, r3, #56
 2267 05a0 9B68     		ldr	r3, [r3, #8]
 2268 05a2 1B78     		ldrb	r3, [r3]
 2269 05a4 181C     		mov	r0, r3
 2270 05a6 FFF7FEFF 		bl	lcdWrdata
 2271              		.loc 1 313 0
 2272 05aa 3A1C     		mov	r2, r7
 2273 05ac 1832     		add	r2, r2, #24
 2274 05ae 3B1C     		mov	r3, r7
 2275 05b0 1833     		add	r3, r3, #24
 2276 05b2 1B68     		ldr	r3, [r3]
 2277 05b4 0133     		add	r3, r3, #1
 2278 05b6 1360     		str	r3, [r2]
 2279              	.L50:
 2280 05b8 3B1C     		mov	r3, r7
 2281 05ba 1833     		add	r3, r3, #24
 2282 05bc 3A1C     		mov	r2, r7
 2283 05be 1C32     		add	r2, r2, #28
 2284 05c0 1968     		ldr	r1, [r3]
 2285 05c2 1368     		ldr	r3, [r2]
 2286 05c4 9942     		cmp	r1, r3
 2287 05c6 E9D3     		bcc	.L51
 315:lcd.c         ****         pData++;
 2288              		.loc 1 315 0
 2289 05c8 3A1C     		mov	r2, r7
 2290 05ca 3832     		add	r2, r2, #56
 2291 05cc 3B1C     		mov	r3, r7
 2292 05ce 3833     		add	r3, r3, #56
 2293 05d0 9B68     		ldr	r3, [r3, #8]
 2294 05d2 0133     		add	r3, r3, #1
 2295 05d4 9360     		str	r3, [r2, #8]
 316:lcd.c         ****         len -= j;
 2296              		.loc 1 316 0
 2297 05d6 381C     		mov	r0, r7
 2298 05d8 2030     		add	r0, r0, #32
 2299 05da 3B1C     		mov	r3, r7
 2300 05dc 2033     		add	r3, r3, #32
 2301 05de 3A1C     		mov	r2, r7
 2302 05e0 1C32     		add	r2, r2, #28
ARM GAS  /cygdrive/c/Users/embedded/AppData/Local/Temp/cc2R7c4N.s 			page 47


 2303 05e2 1968     		ldr	r1, [r3]
 2304 05e4 1368     		ldr	r3, [r2]
 2305 05e6 CB1A     		sub	r3, r1, r3
 2306 05e8 0360     		str	r3, [r0]
 2307 05ea 15E0     		b	.L46
 2308              	.L48:
 317:lcd.c         ****       }
 318:lcd.c         ****       else
 319:lcd.c         ****       {
 320:lcd.c         ****         lcdWrdata(*pData++);
 2309              		.loc 1 320 0
 2310 05ec 3B1C     		mov	r3, r7
 2311 05ee 3833     		add	r3, r3, #56
 2312 05f0 9B68     		ldr	r3, [r3, #8]
 2313 05f2 1B78     		ldrb	r3, [r3]
 2314 05f4 191C     		mov	r1, r3
 2315 05f6 3A1C     		mov	r2, r7
 2316 05f8 3832     		add	r2, r2, #56
 2317 05fa 3B1C     		mov	r3, r7
 2318 05fc 3833     		add	r3, r3, #56
 2319 05fe 9B68     		ldr	r3, [r3, #8]
 2320 0600 0133     		add	r3, r3, #1
 2321 0602 9360     		str	r3, [r2, #8]
 2322 0604 081C     		mov	r0, r1
 2323 0606 FFF7FEFF 		bl	lcdWrdata
 321:lcd.c         ****         len--;
 2324              		.loc 1 321 0
 2325 060a 3A1C     		mov	r2, r7
 2326 060c 2032     		add	r2, r2, #32
 2327 060e 3B1C     		mov	r3, r7
 2328 0610 2033     		add	r3, r3, #32
 2329 0612 1B68     		ldr	r3, [r3]
 2330 0614 013B     		sub	r3, r3, #1
 2331 0616 1360     		str	r3, [r2]
 2332              	.L46:
 2333              	.L54:
 2334              		.loc 1 307 0
 2335 0618 3B1C     		mov	r3, r7
 2336 061a 2033     		add	r3, r3, #32
 2337 061c 1B68     		ldr	r3, [r3]
 2338 061e 002B     		cmp	r3, #0
 2339 0620 9AD1     		bne	.L47
 2340              	.L45:
 322:lcd.c         ****       }
 323:lcd.c         ****     }
 324:lcd.c         **** 
 325:lcd.c         ****   //deselect controller
 326:lcd.c         ****   selectLCD(FALSE);
 2341              		.loc 1 326 0
 2342 0622 0020     		mov	r0, #0
 2343 0624 FFF7FEFF 		bl	selectLCD
 327:lcd.c         **** }
 2344              		.loc 1 327 0
 2345 0628 BD46     		mov	sp, r7
 2346 062a 09B0     		add	sp, sp, #36
 2347              		@ sp needed for prologue
 2348 062c F0BC     		pop	{r4, r5, r6, r7}
ARM GAS  /cygdrive/c/Users/embedded/AppData/Local/Temp/cc2R7c4N.s 			page 48


 2349 062e 01BC     		pop	{r0}
 2350 0630 0047     		bx	r0
 2351              	.LFE9:
 2352              		.size	lcdIcon, .-lcdIcon
 2353 0632 0000     		.align	2
 2354              		.global	lcdGotoxy
 2355              		.code 16
 2356              		.thumb_func
 2357              		.type	lcdGotoxy, %function
 2358              	lcdGotoxy:
 2359              	.LFB10:
 328:lcd.c         **** 
 329:lcd.c         **** /*****************************************************************************
 330:lcd.c         ****  *
 331:lcd.c         ****  * Description:
 332:lcd.c         ****  *    Update xy-position (by also creating a window).
 333:lcd.c         ****  *
 334:lcd.c         ****  ****************************************************************************/
 335:lcd.c         **** 
 336:lcd.c         **** void lcdGotoxy(tU8 x, tU8 y)
 337:lcd.c         **** {
 2360              		.loc 1 337 0
 2361 0634 80B5     		push	{r7, lr}
 2362              	.LCFI23:
 2363 0636 82B0     		sub	sp, sp, #8
 2364              	.LCFI24:
 2365 0638 00AF     		add	r7, sp, #0
 2366              	.LCFI25:
 2367 063a 031C     		mov	r3, r0
 2368 063c 3A1D     		add	r2, r7, #4
 2369 063e 1370     		strb	r3, [r2]
 2370 0640 3A1C     		mov	r2, r7
 2371 0642 0B1C     		add	r3, r1, #0
 2372 0644 1370     		strb	r3, [r2]
 338:lcd.c         ****   lcd_x = x;
 2373              		.loc 1 338 0
 2374 0646 0B4A     		ldr	r2, .L57
 2375 0648 3B1D     		add	r3, r7, #4
 2376 064a 1B78     		ldrb	r3, [r3]
 2377 064c 1370     		strb	r3, [r2]
 339:lcd.c         ****   lcd_y = y;
 2378              		.loc 1 339 0
 2379 064e 0A4A     		ldr	r2, .L57+4
 2380 0650 3B1C     		mov	r3, r7
 2381 0652 1B78     		ldrb	r3, [r3]
 2382 0654 1370     		strb	r3, [r2]
 340:lcd.c         ****   lcdWindow(x, y, 129, 129);
 2383              		.loc 1 340 0
 2384 0656 3B1D     		add	r3, r7, #4
 2385 0658 1A78     		ldrb	r2, [r3]
 2386 065a 3B1C     		mov	r3, r7
 2387 065c 1B78     		ldrb	r3, [r3]
 2388 065e 101C     		mov	r0, r2
 2389 0660 191C     		mov	r1, r3
 2390 0662 8122     		mov	r2, #129
 2391 0664 8123     		mov	r3, #129
 2392 0666 FFF7FEFF 		bl	lcdWindow
ARM GAS  /cygdrive/c/Users/embedded/AppData/Local/Temp/cc2R7c4N.s 			page 49


 341:lcd.c         **** }
 2393              		.loc 1 341 0
 2394 066a BD46     		mov	sp, r7
 2395 066c 02B0     		add	sp, sp, #8
 2396              		@ sp needed for prologue
 2397 066e 80BC     		pop	{r7}
 2398 0670 01BC     		pop	{r0}
 2399 0672 0047     		bx	r0
 2400              	.L58:
 2401              		.align	2
 2402              	.L57:
 2403 0674 00000000 		.word	lcd_x
 2404 0678 01000000 		.word	lcd_y
 2405              	.LFE10:
 2406              		.size	lcdGotoxy, .-lcdGotoxy
 2407              		.align	2
 2408              		.global	lcdWindow
 2409              		.code 16
 2410              		.thumb_func
 2411              		.type	lcdWindow, %function
 2412              	lcdWindow:
 2413              	.LFB11:
 342:lcd.c         **** 
 343:lcd.c         **** /*****************************************************************************
 344:lcd.c         ****  *
 345:lcd.c         ****  * Description:
 346:lcd.c         ****  *    Initialize LCD controller for a window (to write in).
 347:lcd.c         ****  *    Set start xy-position and xy-length.
 348:lcd.c         ****  *    Selects/deselects LCD controller.
 349:lcd.c         ****  *
 350:lcd.c         ****  ****************************************************************************/
 351:lcd.c         **** 
 352:lcd.c         **** void lcdWindow(tU8 xp, tU8 yp, tU8 xe, tU8 ye)
 353:lcd.c         **** {
 2414              		.loc 1 353 0
 2415 067c B0B5     		push	{r4, r5, r7, lr}
 2416              	.LCFI26:
 2417 067e 84B0     		sub	sp, sp, #16
 2418              	.LCFI27:
 2419 0680 00AF     		add	r7, sp, #0
 2420              	.LCFI28:
 2421 0682 141C     		mov	r4, r2
 2422 0684 1D1C     		mov	r5, r3
 2423 0686 3A1C     		mov	r2, r7
 2424 0688 0C32     		add	r2, r2, #12
 2425 068a 031C     		add	r3, r0, #0
 2426 068c 1370     		strb	r3, [r2]
 2427 068e 3A1C     		mov	r2, r7
 2428 0690 0832     		add	r2, r2, #8
 2429 0692 0B1C     		add	r3, r1, #0
 2430 0694 1370     		strb	r3, [r2]
 2431 0696 3A1D     		add	r2, r7, #4
 2432 0698 231C     		add	r3, r4, #0
 2433 069a 1370     		strb	r3, [r2]
 2434 069c 3A1C     		mov	r2, r7
 2435 069e 2B1C     		add	r3, r5, #0
 2436 06a0 1370     		strb	r3, [r2]
ARM GAS  /cygdrive/c/Users/embedded/AppData/Local/Temp/cc2R7c4N.s 			page 50


 354:lcd.c         ****   //select controller
 355:lcd.c         ****   selectLCD(TRUE);
 2437              		.loc 1 355 0
 2438 06a2 0120     		mov	r0, #1
 2439 06a4 FFF7FEFF 		bl	selectLCD
 356:lcd.c         **** 
 357:lcd.c         **** 	lcdWindow1(xp, yp, xe, ye);
 2440              		.loc 1 357 0
 2441 06a8 3B1C     		mov	r3, r7
 2442 06aa 0C33     		add	r3, r3, #12
 2443 06ac 1978     		ldrb	r1, [r3]
 2444 06ae 3B1C     		mov	r3, r7
 2445 06b0 0833     		add	r3, r3, #8
 2446 06b2 1C78     		ldrb	r4, [r3]
 2447 06b4 3B1D     		add	r3, r7, #4
 2448 06b6 1A78     		ldrb	r2, [r3]
 2449 06b8 3B1C     		mov	r3, r7
 2450 06ba 1B78     		ldrb	r3, [r3]
 2451 06bc 081C     		mov	r0, r1
 2452 06be 211C     		mov	r1, r4
 2453 06c0 00F008F8 		bl	lcdWindow1
 358:lcd.c         **** 
 359:lcd.c         ****   //deselect controller
 360:lcd.c         ****   selectLCD(FALSE);
 2454              		.loc 1 360 0
 2455 06c4 0020     		mov	r0, #0
 2456 06c6 FFF7FEFF 		bl	selectLCD
 361:lcd.c         **** }
 2457              		.loc 1 361 0
 2458 06ca BD46     		mov	sp, r7
 2459 06cc 04B0     		add	sp, sp, #16
 2460              		@ sp needed for prologue
 2461 06ce B0BC     		pop	{r4, r5, r7}
 2462 06d0 01BC     		pop	{r0}
 2463 06d2 0047     		bx	r0
 2464              	.LFE11:
 2465              		.size	lcdWindow, .-lcdWindow
 2466              		.align	2
 2467              		.code 16
 2468              		.thumb_func
 2469              		.type	lcdWindow1, %function
 2470              	lcdWindow1:
 2471              	.LFB12:
 362:lcd.c         **** 
 363:lcd.c         **** /*****************************************************************************
 364:lcd.c         ****  *
 365:lcd.c         ****  * Description:
 366:lcd.c         ****  *    Initialize LCD controller for a window (to write in).
 367:lcd.c         ****  *    Set start xy-position and xy-length
 368:lcd.c         ****  *    No select/deselect of LCD controller.
 369:lcd.c         ****  *
 370:lcd.c         ****  ****************************************************************************/
 371:lcd.c         **** 
 372:lcd.c         **** static void lcdWindow1(tU8 xp, tU8 yp, tU8 xe, tU8 ye)
 373:lcd.c         **** {
 2472              		.loc 1 373 0
 2473 06d4 B0B5     		push	{r4, r5, r7, lr}
ARM GAS  /cygdrive/c/Users/embedded/AppData/Local/Temp/cc2R7c4N.s 			page 51


 2474              	.LCFI29:
 2475 06d6 84B0     		sub	sp, sp, #16
 2476              	.LCFI30:
 2477 06d8 00AF     		add	r7, sp, #0
 2478              	.LCFI31:
 2479 06da 141C     		mov	r4, r2
 2480 06dc 1D1C     		mov	r5, r3
 2481 06de 3A1C     		mov	r2, r7
 2482 06e0 0C32     		add	r2, r2, #12
 2483 06e2 031C     		add	r3, r0, #0
 2484 06e4 1370     		strb	r3, [r2]
 2485 06e6 3A1C     		mov	r2, r7
 2486 06e8 0832     		add	r2, r2, #8
 2487 06ea 0B1C     		add	r3, r1, #0
 2488 06ec 1370     		strb	r3, [r2]
 2489 06ee 3A1D     		add	r2, r7, #4
 2490 06f0 231C     		add	r3, r4, #0
 2491 06f2 1370     		strb	r3, [r2]
 2492 06f4 3A1C     		mov	r2, r7
 2493 06f6 2B1C     		add	r3, r5, #0
 2494 06f8 1370     		strb	r3, [r2]
 374:lcd.c         ****   lcdWrcmd(LCD_CMD_CASET);    //set X
 2495              		.loc 1 374 0
 2496 06fa 2A20     		mov	r0, #42
 2497 06fc FFF7FEFF 		bl	lcdWrcmd
 375:lcd.c         ****   lcdWrdata(xp+2);
 2498              		.loc 1 375 0
 2499 0700 3B1C     		mov	r3, r7
 2500 0702 0C33     		add	r3, r3, #12
 2501 0704 1B78     		ldrb	r3, [r3]
 2502 0706 0233     		add	r3, r3, #2
 2503 0708 1B06     		lsl	r3, r3, #24
 2504 070a 1B0E     		lsr	r3, r3, #24
 2505 070c 181C     		mov	r0, r3
 2506 070e FFF7FEFF 		bl	lcdWrdata
 376:lcd.c         **** 	lcdWrdata(xe+2);
 2507              		.loc 1 376 0
 2508 0712 3B1D     		add	r3, r7, #4
 2509 0714 1B78     		ldrb	r3, [r3]
 2510 0716 0233     		add	r3, r3, #2
 2511 0718 1B06     		lsl	r3, r3, #24
 2512 071a 1B0E     		lsr	r3, r3, #24
 2513 071c 181C     		mov	r0, r3
 2514 071e FFF7FEFF 		bl	lcdWrdata
 377:lcd.c         **** 
 378:lcd.c         **** 	lcdWrcmd(LCD_CMD_PASET);    //set Y
 2515              		.loc 1 378 0
 2516 0722 2B20     		mov	r0, #43
 2517 0724 FFF7FEFF 		bl	lcdWrcmd
 379:lcd.c         **** 	lcdWrdata(yp+2);
 2518              		.loc 1 379 0
 2519 0728 3B1C     		mov	r3, r7
 2520 072a 0833     		add	r3, r3, #8
 2521 072c 1B78     		ldrb	r3, [r3]
 2522 072e 0233     		add	r3, r3, #2
 2523 0730 1B06     		lsl	r3, r3, #24
 2524 0732 1B0E     		lsr	r3, r3, #24
ARM GAS  /cygdrive/c/Users/embedded/AppData/Local/Temp/cc2R7c4N.s 			page 52


 2525 0734 181C     		mov	r0, r3
 2526 0736 FFF7FEFF 		bl	lcdWrdata
 380:lcd.c         **** 	lcdWrdata(ye+2);
 2527              		.loc 1 380 0
 2528 073a 3B1C     		mov	r3, r7
 2529 073c 1B78     		ldrb	r3, [r3]
 2530 073e 0233     		add	r3, r3, #2
 2531 0740 1B06     		lsl	r3, r3, #24
 2532 0742 1B0E     		lsr	r3, r3, #24
 2533 0744 181C     		mov	r0, r3
 2534 0746 FFF7FEFF 		bl	lcdWrdata
 381:lcd.c         **** }
 2535              		.loc 1 381 0
 2536 074a BD46     		mov	sp, r7
 2537 074c 04B0     		add	sp, sp, #16
 2538              		@ sp needed for prologue
 2539 074e B0BC     		pop	{r4, r5, r7}
 2540 0750 01BC     		pop	{r0}
 2541 0752 0047     		bx	r0
 2542              	.LFE12:
 2543              		.size	lcdWindow1, .-lcdWindow1
 2544              		.align	2
 2545              		.code 16
 2546              		.thumb_func
 2547              		.type	lcdNewline, %function
 2548              	lcdNewline:
 2549              	.LFB13:
 382:lcd.c         **** 
 383:lcd.c         **** /*****************************************************************************
 384:lcd.c         ****  *
 385:lcd.c         ****  * Description:
 386:lcd.c         ****  *    Update xy-position for newline situation.
 387:lcd.c         ****  *
 388:lcd.c         ****  ****************************************************************************/
 389:lcd.c         **** 
 390:lcd.c         **** static void lcdNewline(void)
 391:lcd.c         **** {
 2550              		.loc 1 391 0
 2551 0754 80B5     		push	{r7, lr}
 2552              	.LCFI32:
 2553 0756 02AF     		add	r7, sp, #8
 2554              	.LCFI33:
 392:lcd.c         ****   lcd_x  = 0;
 2555              		.loc 1 392 0
 2556 0758 0A4A     		ldr	r2, .L67
 2557 075a 0023     		mov	r3, #0
 2558 075c 1370     		strb	r3, [r2]
 393:lcd.c         ****   lcd_y	+= 14;
 2559              		.loc 1 393 0
 2560 075e 0A4B     		ldr	r3, .L67+4
 2561 0760 1B78     		ldrb	r3, [r3]
 2562 0762 0E33     		add	r3, r3, #14
 2563 0764 1B06     		lsl	r3, r3, #24
 2564 0766 1B0E     		lsr	r3, r3, #24
 2565 0768 074A     		ldr	r2, .L67+4
 2566 076a 1370     		strb	r3, [r2]
 394:lcd.c         ****   if (lcd_y >= 126)
ARM GAS  /cygdrive/c/Users/embedded/AppData/Local/Temp/cc2R7c4N.s 			page 53


 2567              		.loc 1 394 0
 2568 076c 064B     		ldr	r3, .L67+4
 2569 076e 1B78     		ldrb	r3, [r3]
 2570 0770 7D2B     		cmp	r3, #125
 2571 0772 02D9     		bls	.L66
 395:lcd.c         ****     lcd_y = 126;
 2572              		.loc 1 395 0
 2573 0774 044B     		ldr	r3, .L67+4
 2574 0776 7E22     		mov	r2, #126
 2575 0778 1A70     		strb	r2, [r3]
 2576              	.L66:
 396:lcd.c         **** }
 2577              		.loc 1 396 0
 2578 077a BD46     		mov	sp, r7
 2579 077c 82B0     		sub	sp, sp, #8
 2580              		@ sp needed for prologue
 2581 077e 80BC     		pop	{r7}
 2582 0780 01BC     		pop	{r0}
 2583 0782 0047     		bx	r0
 2584              	.L68:
 2585              		.align	2
 2586              	.L67:
 2587 0784 00000000 		.word	lcd_x
 2588 0788 01000000 		.word	lcd_y
 2589              	.LFE13:
 2590              		.size	lcdNewline, .-lcdNewline
 2591              		.align	2
 2592              		.global	lcdData
 2593              		.code 16
 2594              		.thumb_func
 2595              		.type	lcdData, %function
 2596              	lcdData:
 2597              	.LFB14:
 397:lcd.c         **** 
 398:lcd.c         **** /*****************************************************************************
 399:lcd.c         ****  *
 400:lcd.c         ****  * Description:
 401:lcd.c         ****  *    Draw one character withc current foreground and background color
 402:lcd.c         ****  *    at current xy position on display. Update x-position (+8).
 403:lcd.c         ****  *
 404:lcd.c         ****  ****************************************************************************/
 405:lcd.c         **** 
 406:lcd.c         **** void lcdData(tU8 data)
 407:lcd.c         **** {
 2598              		.loc 1 407 0
 2599 078c 80B5     		push	{r7, lr}
 2600              	.LCFI34:
 2601 078e 83B0     		sub	sp, sp, #12
 2602              	.LCFI35:
 2603 0790 00AF     		add	r7, sp, #0
 2604              	.LCFI36:
 2605 0792 031C     		mov	r3, r0
 2606 0794 3A1C     		mov	r2, r7
 2607 0796 1370     		strb	r3, [r2]
 408:lcd.c         ****   //select controller
 409:lcd.c         ****   selectLCD(TRUE);
 2608              		.loc 1 409 0
ARM GAS  /cygdrive/c/Users/embedded/AppData/Local/Temp/cc2R7c4N.s 			page 54


 2609 0798 0120     		mov	r0, #1
 2610 079a FFF7FEFF 		bl	selectLCD
 410:lcd.c         ****   
 411:lcd.c         ****   if (data <= 127)
 2611              		.loc 1 411 0
 2612 079e 3B1C     		mov	r3, r7
 2613 07a0 1B78     		ldrb	r3, [r3]
 2614 07a2 1B06     		lsl	r3, r3, #24
 2615 07a4 1B16     		asr	r3, r3, #24
 2616 07a6 002B     		cmp	r3, #0
 2617 07a8 00DA     		bge	.LCB1184
 2618 07aa 7DE0     		b	.L70	@long jump
 2619              	.LCB1184:
 2620              	.LBB2:
 412:lcd.c         ****   {
 413:lcd.c         ****     tU32 mapOffset;
 414:lcd.c         ****     tU8 i,j,byteToShift;
 415:lcd.c         **** 
 416:lcd.c         ****     data -= 30;
 2621              		.loc 1 416 0
 2622 07ac 3A1C     		mov	r2, r7
 2623 07ae 3B1C     		mov	r3, r7
 2624 07b0 1B78     		ldrb	r3, [r3]
 2625 07b2 1E3B     		sub	r3, r3, #30
 2626 07b4 1370     		strb	r3, [r2]
 417:lcd.c         ****     mapOffset = 14*data;
 2627              		.loc 1 417 0
 2628 07b6 3B1C     		mov	r3, r7
 2629 07b8 1A78     		ldrb	r2, [r3]
 2630 07ba 131C     		mov	r3, r2
 2631 07bc DB00     		lsl	r3, r3, #3
 2632 07be 9B1A     		sub	r3, r3, r2
 2633 07c0 5B00     		lsl	r3, r3, #1
 2634 07c2 1A1C     		mov	r2, r3
 2635 07c4 3B1D     		add	r3, r7, #4
 2636 07c6 1A60     		str	r2, [r3]
 418:lcd.c         **** 
 419:lcd.c         ****     lcdWrcmd(LCD_CMD_CASET);
 2637              		.loc 1 419 0
 2638 07c8 2A20     		mov	r0, #42
 2639 07ca FFF7FEFF 		bl	lcdWrcmd
 420:lcd.c         ****     lcdWrdata(lcd_x+2);
 2640              		.loc 1 420 0
 2641 07ce 3E4B     		ldr	r3, .L81
 2642 07d0 1B78     		ldrb	r3, [r3]
 2643 07d2 0233     		add	r3, r3, #2
 2644 07d4 1B06     		lsl	r3, r3, #24
 2645 07d6 1B0E     		lsr	r3, r3, #24
 2646 07d8 181C     		mov	r0, r3
 2647 07da FFF7FEFF 		bl	lcdWrdata
 421:lcd.c         ****     lcdWrdata(lcd_x+9);
 2648              		.loc 1 421 0
 2649 07de 3A4B     		ldr	r3, .L81
 2650 07e0 1B78     		ldrb	r3, [r3]
 2651 07e2 0933     		add	r3, r3, #9
 2652 07e4 1B06     		lsl	r3, r3, #24
 2653 07e6 1B0E     		lsr	r3, r3, #24
ARM GAS  /cygdrive/c/Users/embedded/AppData/Local/Temp/cc2R7c4N.s 			page 55


 2654 07e8 181C     		mov	r0, r3
 2655 07ea FFF7FEFF 		bl	lcdWrdata
 422:lcd.c         ****     lcdWrcmd(LCD_CMD_PASET);
 2656              		.loc 1 422 0
 2657 07ee 2B20     		mov	r0, #43
 2658 07f0 FFF7FEFF 		bl	lcdWrcmd
 423:lcd.c         ****     lcdWrdata(lcd_y+2);
 2659              		.loc 1 423 0
 2660 07f4 354B     		ldr	r3, .L81+4
 2661 07f6 1B78     		ldrb	r3, [r3]
 2662 07f8 0233     		add	r3, r3, #2
 2663 07fa 1B06     		lsl	r3, r3, #24
 2664 07fc 1B0E     		lsr	r3, r3, #24
 2665 07fe 181C     		mov	r0, r3
 2666 0800 FFF7FEFF 		bl	lcdWrdata
 424:lcd.c         ****     lcdWrdata(lcd_y+15);
 2667              		.loc 1 424 0
 2668 0804 314B     		ldr	r3, .L81+4
 2669 0806 1B78     		ldrb	r3, [r3]
 2670 0808 0F33     		add	r3, r3, #15
 2671 080a 1B06     		lsl	r3, r3, #24
 2672 080c 1B0E     		lsr	r3, r3, #24
 2673 080e 181C     		mov	r0, r3
 2674 0810 FFF7FEFF 		bl	lcdWrdata
 425:lcd.c         ****     lcdWrcmd(LCD_CMD_RAMWR);
 2675              		.loc 1 425 0
 2676 0814 2C20     		mov	r0, #44
 2677 0816 FFF7FEFF 		bl	lcdWrcmd
 426:lcd.c         ****     
 427:lcd.c         ****     for(i=0; i<14; i++)
 2678              		.loc 1 427 0
 2679 081a 3A1C     		mov	r2, r7
 2680 081c 0932     		add	r2, r2, #9
 2681 081e 0023     		mov	r3, #0
 2682 0820 1370     		strb	r3, [r2]
 2683 0822 3CE0     		b	.L72
 2684              	.L73:
 428:lcd.c         ****     {
 429:lcd.c         ****       byteToShift = charMap[mapOffset++];
 2685              		.loc 1 429 0
 2686 0824 3B1D     		add	r3, r7, #4
 2687 0826 1A68     		ldr	r2, [r3]
 2688 0828 391C     		mov	r1, r7
 2689 082a 0B31     		add	r1, r1, #11
 2690 082c 284B     		ldr	r3, .L81+8
 2691 082e 9B5C     		ldrb	r3, [r3, r2]
 2692 0830 0B70     		strb	r3, [r1]
 2693 0832 3A1D     		add	r2, r7, #4
 2694 0834 3B1D     		add	r3, r7, #4
 2695 0836 1B68     		ldr	r3, [r3]
 2696 0838 0133     		add	r3, r3, #1
 2697 083a 1360     		str	r3, [r2]
 430:lcd.c         ****       for(j=0; j<8; j++)
 2698              		.loc 1 430 0
 2699 083c 3A1C     		mov	r2, r7
 2700 083e 0A32     		add	r2, r2, #10
 2701 0840 0023     		mov	r3, #0
ARM GAS  /cygdrive/c/Users/embedded/AppData/Local/Temp/cc2R7c4N.s 			page 56


 2702 0842 1370     		strb	r3, [r2]
 2703 0844 1FE0     		b	.L74
 2704              	.L75:
 431:lcd.c         ****       {
 432:lcd.c         ****         if (byteToShift & 0x80)
 2705              		.loc 1 432 0
 2706 0846 3B1C     		mov	r3, r7
 2707 0848 0B33     		add	r3, r3, #11
 2708 084a 1B78     		ldrb	r3, [r3]
 2709 084c 1B06     		lsl	r3, r3, #24
 2710 084e 1B16     		asr	r3, r3, #24
 2711 0850 002B     		cmp	r3, #0
 2712 0852 05DA     		bge	.L76
 433:lcd.c         ****           lcdWrdata(textColor);
 2713              		.loc 1 433 0
 2714 0854 1F4B     		ldr	r3, .L81+12
 2715 0856 1B78     		ldrb	r3, [r3]
 2716 0858 181C     		mov	r0, r3
 2717 085a FFF7FEFF 		bl	lcdWrdata
 2718 085e 04E0     		b	.L78
 2719              	.L76:
 434:lcd.c         ****         else
 435:lcd.c         ****           lcdWrdata(bkgColor);
 2720              		.loc 1 435 0
 2721 0860 1D4B     		ldr	r3, .L81+16
 2722 0862 1B78     		ldrb	r3, [r3]
 2723 0864 181C     		mov	r0, r3
 2724 0866 FFF7FEFF 		bl	lcdWrdata
 2725              	.L78:
 436:lcd.c         ****         byteToShift <<= 1;
 2726              		.loc 1 436 0
 2727 086a 3A1C     		mov	r2, r7
 2728 086c 0B32     		add	r2, r2, #11
 2729 086e 3B1C     		mov	r3, r7
 2730 0870 0B33     		add	r3, r3, #11
 2731 0872 1B78     		ldrb	r3, [r3]
 2732 0874 5B00     		lsl	r3, r3, #1
 2733 0876 1370     		strb	r3, [r2]
 2734              		.loc 1 430 0
 2735 0878 3A1C     		mov	r2, r7
 2736 087a 0A32     		add	r2, r2, #10
 2737 087c 3B1C     		mov	r3, r7
 2738 087e 0A33     		add	r3, r3, #10
 2739 0880 1B78     		ldrb	r3, [r3]
 2740 0882 0133     		add	r3, r3, #1
 2741 0884 1370     		strb	r3, [r2]
 2742              	.L74:
 2743 0886 3B1C     		mov	r3, r7
 2744 0888 0A33     		add	r3, r3, #10
 2745 088a 1B78     		ldrb	r3, [r3]
 2746 088c 072B     		cmp	r3, #7
 2747 088e DAD9     		bls	.L75
 2748              		.loc 1 427 0
 2749 0890 3A1C     		mov	r2, r7
 2750 0892 0932     		add	r2, r2, #9
 2751 0894 3B1C     		mov	r3, r7
 2752 0896 0933     		add	r3, r3, #9
ARM GAS  /cygdrive/c/Users/embedded/AppData/Local/Temp/cc2R7c4N.s 			page 57


 2753 0898 1B78     		ldrb	r3, [r3]
 2754 089a 0133     		add	r3, r3, #1
 2755 089c 1370     		strb	r3, [r2]
 2756              	.L72:
 2757 089e 3B1C     		mov	r3, r7
 2758 08a0 0933     		add	r3, r3, #9
 2759 08a2 1B78     		ldrb	r3, [r3]
 2760 08a4 0D2B     		cmp	r3, #13
 2761 08a6 BDD9     		bls	.L73
 2762              	.L70:
 2763              	.LBE2:
 437:lcd.c         ****       }
 438:lcd.c         ****     }
 439:lcd.c         ****   }
 440:lcd.c         **** 
 441:lcd.c         ****   //deselect controller
 442:lcd.c         ****   selectLCD(FALSE);
 2764              		.loc 1 442 0
 2765 08a8 0020     		mov	r0, #0
 2766 08aa FFF7FEFF 		bl	selectLCD
 443:lcd.c         **** 
 444:lcd.c         ****   lcd_x += 8;
 2767              		.loc 1 444 0
 2768 08ae 064B     		ldr	r3, .L81
 2769 08b0 1B78     		ldrb	r3, [r3]
 2770 08b2 0833     		add	r3, r3, #8
 2771 08b4 1B06     		lsl	r3, r3, #24
 2772 08b6 1B0E     		lsr	r3, r3, #24
 2773 08b8 034A     		ldr	r2, .L81
 2774 08ba 1370     		strb	r3, [r2]
 445:lcd.c         **** }
 2775              		.loc 1 445 0
 2776 08bc BD46     		mov	sp, r7
 2777 08be 03B0     		add	sp, sp, #12
 2778              		@ sp needed for prologue
 2779 08c0 80BC     		pop	{r7}
 2780 08c2 01BC     		pop	{r0}
 2781 08c4 0047     		bx	r0
 2782              	.L82:
 2783 08c6 0000     		.align	2
 2784              	.L81:
 2785 08c8 00000000 		.word	lcd_x
 2786 08cc 01000000 		.word	lcd_y
 2787 08d0 00000000 		.word	charMap
 2788 08d4 03000000 		.word	textColor
 2789 08d8 02000000 		.word	bkgColor
 2790              	.LFE14:
 2791              		.size	lcdData, .-lcdData
 2792              		.align	2
 2793              		.global	lcdPutchar
 2794              		.code 16
 2795              		.thumb_func
 2796              		.type	lcdPutchar, %function
 2797              	lcdPutchar:
 2798              	.LFB15:
 446:lcd.c         **** 
 447:lcd.c         **** /*****************************************************************************
ARM GAS  /cygdrive/c/Users/embedded/AppData/Local/Temp/cc2R7c4N.s 			page 58


 448:lcd.c         ****  *
 449:lcd.c         ****  * Description:
 450:lcd.c         ****  *    Write/draw one character at current xy-position.
 451:lcd.c         ****  *    The xy-position is updated afterwards
 452:lcd.c         ****  *
 453:lcd.c         ****  ****************************************************************************/
 454:lcd.c         **** 
 455:lcd.c         **** void lcdPutchar(tU8 data)
 456:lcd.c         **** {
 2799              		.loc 1 456 0
 2800 08dc 80B5     		push	{r7, lr}
 2801              	.LCFI37:
 2802 08de 81B0     		sub	sp, sp, #4
 2803              	.LCFI38:
 2804 08e0 00AF     		add	r7, sp, #0
 2805              	.LCFI39:
 2806 08e2 031C     		mov	r3, r0
 2807 08e4 3A1C     		mov	r2, r7
 2808 08e6 1370     		strb	r3, [r2]
 457:lcd.c         ****   if (data == '\n')
 2809              		.loc 1 457 0
 2810 08e8 3B1C     		mov	r3, r7
 2811 08ea 1B78     		ldrb	r3, [r3]
 2812 08ec 0A2B     		cmp	r3, #10
 2813 08ee 02D1     		bne	.L84
 458:lcd.c         ****     lcdNewline();
 2814              		.loc 1 458 0
 2815 08f0 FFF730FF 		bl	lcdNewline
 2816 08f4 20E0     		b	.L93
 2817              	.L84:
 459:lcd.c         ****   else if (data != '\r')
 2818              		.loc 1 459 0
 2819 08f6 3B1C     		mov	r3, r7
 2820 08f8 1B78     		ldrb	r3, [r3]
 2821 08fa 0D2B     		cmp	r3, #13
 2822 08fc 1CD0     		beq	.L93
 460:lcd.c         ****   {
 461:lcd.c         ****     if (setcolmark == TRUE)
 2823              		.loc 1 461 0
 2824 08fe 114B     		ldr	r3, .L94
 2825 0900 1B78     		ldrb	r3, [r3]
 2826 0902 012B     		cmp	r3, #1
 2827 0904 07D1     		bne	.L88
 462:lcd.c         ****     {
 463:lcd.c         ****       textColor = data;
 2828              		.loc 1 463 0
 2829 0906 104A     		ldr	r2, .L94+4
 2830 0908 3B1C     		mov	r3, r7
 2831 090a 1B78     		ldrb	r3, [r3]
 2832 090c 1370     		strb	r3, [r2]
 464:lcd.c         ****       setcolmark = FALSE;
 2833              		.loc 1 464 0
 2834 090e 0D4A     		ldr	r2, .L94
 2835 0910 0023     		mov	r3, #0
 2836 0912 1370     		strb	r3, [r2]
 2837 0914 10E0     		b	.L93
 2838              	.L88:
ARM GAS  /cygdrive/c/Users/embedded/AppData/Local/Temp/cc2R7c4N.s 			page 59


 465:lcd.c         ****     }
 466:lcd.c         ****     else if (data == 0xff)
 2839              		.loc 1 466 0
 2840 0916 3B1C     		mov	r3, r7
 2841 0918 1B78     		ldrb	r3, [r3]
 2842 091a FF2B     		cmp	r3, #255
 2843 091c 03D1     		bne	.L90
 467:lcd.c         ****       setcolmark = TRUE;
 2844              		.loc 1 467 0
 2845 091e 094B     		ldr	r3, .L94
 2846 0920 0122     		mov	r2, #1
 2847 0922 1A70     		strb	r2, [r3]
 2848 0924 08E0     		b	.L93
 2849              	.L90:
 468:lcd.c         ****     else if (lcd_x <= 124)
 2850              		.loc 1 468 0
 2851 0926 094B     		ldr	r3, .L94+8
 2852 0928 1B78     		ldrb	r3, [r3]
 2853 092a 7C2B     		cmp	r3, #124
 2854 092c 04D8     		bhi	.L93
 469:lcd.c         ****     {
 470:lcd.c         ****       lcdData(data);
 2855              		.loc 1 470 0
 2856 092e 3B1C     		mov	r3, r7
 2857 0930 1B78     		ldrb	r3, [r3]
 2858 0932 181C     		mov	r0, r3
 2859 0934 FFF7FEFF 		bl	lcdData
 2860              	.L93:
 471:lcd.c         ****     }
 472:lcd.c         ****   }
 473:lcd.c         **** }
 2861              		.loc 1 473 0
 2862 0938 BD46     		mov	sp, r7
 2863 093a 01B0     		add	sp, sp, #4
 2864              		@ sp needed for prologue
 2865 093c 80BC     		pop	{r7}
 2866 093e 01BC     		pop	{r0}
 2867 0940 0047     		bx	r0
 2868              	.L95:
 2869 0942 0000     		.align	2
 2870              	.L94:
 2871 0944 04000000 		.word	setcolmark
 2872 0948 03000000 		.word	textColor
 2873 094c 00000000 		.word	lcd_x
 2874              	.LFE15:
 2875              		.size	lcdPutchar, .-lcdPutchar
 2876              		.align	2
 2877              		.global	lcdPuts
 2878              		.code 16
 2879              		.thumb_func
 2880              		.type	lcdPuts, %function
 2881              	lcdPuts:
 2882              	.LFB16:
 474:lcd.c         **** 
 475:lcd.c         **** /*****************************************************************************
 476:lcd.c         ****  *
 477:lcd.c         ****  * Description:
ARM GAS  /cygdrive/c/Users/embedded/AppData/Local/Temp/cc2R7c4N.s 			page 60


 478:lcd.c         ****  *    Write/draw (null-terminated) string of character at current xy-position
 479:lcd.c         ****  *
 480:lcd.c         ****  ****************************************************************************/
 481:lcd.c         **** 
 482:lcd.c         **** void lcdPuts(char *s)
 483:lcd.c         **** {
 2883              		.loc 1 483 0
 2884 0950 80B5     		push	{r7, lr}
 2885              	.LCFI40:
 2886 0952 81B0     		sub	sp, sp, #4
 2887              	.LCFI41:
 2888 0954 00AF     		add	r7, sp, #0
 2889              	.LCFI42:
 2890 0956 3B1C     		mov	r3, r7
 2891 0958 1860     		str	r0, [r3]
 484:lcd.c         ****   while(*s != '\0')
 2892              		.loc 1 484 0
 2893 095a 0BE0     		b	.L97
 2894              	.L98:
 485:lcd.c         ****     lcdPutchar(*s++);
 2895              		.loc 1 485 0
 2896 095c 3B1C     		mov	r3, r7
 2897 095e 1B68     		ldr	r3, [r3]
 2898 0960 1B78     		ldrb	r3, [r3]
 2899 0962 191C     		mov	r1, r3
 2900 0964 3A1C     		mov	r2, r7
 2901 0966 3B1C     		mov	r3, r7
 2902 0968 1B68     		ldr	r3, [r3]
 2903 096a 0133     		add	r3, r3, #1
 2904 096c 1360     		str	r3, [r2]
 2905 096e 081C     		mov	r0, r1
 2906 0970 FFF7FEFF 		bl	lcdPutchar
 2907              	.L97:
 2908              		.loc 1 484 0
 2909 0974 3B1C     		mov	r3, r7
 2910 0976 1B68     		ldr	r3, [r3]
 2911 0978 1B78     		ldrb	r3, [r3]
 2912 097a 002B     		cmp	r3, #0
 2913 097c EED1     		bne	.L98
 486:lcd.c         **** }
 2914              		.loc 1 486 0
 2915 097e BD46     		mov	sp, r7
 2916 0980 01B0     		add	sp, sp, #4
 2917              		@ sp needed for prologue
 2918 0982 80BC     		pop	{r7}
 2919 0984 01BC     		pop	{r0}
 2920 0986 0047     		bx	r0
 2921              	.LFE16:
 2922              		.size	lcdPuts, .-lcdPuts
 2923              		.align	2
 2924              		.global	lcdWrcmd
 2925              		.code 16
 2926              		.thumb_func
 2927              		.type	lcdWrcmd, %function
 2928              	lcdWrcmd:
 2929              	.LFB17:
 487:lcd.c         **** 
ARM GAS  /cygdrive/c/Users/embedded/AppData/Local/Temp/cc2R7c4N.s 			page 61


 488:lcd.c         **** /*****************************************************************************
 489:lcd.c         ****  *
 490:lcd.c         ****  * Description:
 491:lcd.c         ****  *    Send command data to LCD controller
 492:lcd.c         ****  *
 493:lcd.c         ****  ****************************************************************************/
 494:lcd.c         **** 
 495:lcd.c         **** void lcdWrcmd(tU8 data)
 496:lcd.c         **** {
 2930              		.loc 1 496 0
 2931 0988 80B5     		push	{r7, lr}
 2932              	.LCFI43:
 2933 098a 81B0     		sub	sp, sp, #4
 2934              	.LCFI44:
 2935 098c 00AF     		add	r7, sp, #0
 2936              	.LCFI45:
 2937 098e 031C     		mov	r3, r0
 2938 0990 3A1C     		mov	r2, r7
 2939 0992 1370     		strb	r3, [r2]
 497:lcd.c         ****   sendToLCD(0, data);
 2940              		.loc 1 497 0
 2941 0994 3B1C     		mov	r3, r7
 2942 0996 1B78     		ldrb	r3, [r3]
 2943 0998 0020     		mov	r0, #0
 2944 099a 191C     		mov	r1, r3
 2945 099c FFF7FEFF 		bl	sendToLCD
 498:lcd.c         **** }
 2946              		.loc 1 498 0
 2947 09a0 BD46     		mov	sp, r7
 2948 09a2 01B0     		add	sp, sp, #4
 2949              		@ sp needed for prologue
 2950 09a4 80BC     		pop	{r7}
 2951 09a6 01BC     		pop	{r0}
 2952 09a8 0047     		bx	r0
 2953              	.LFE17:
 2954              		.size	lcdWrcmd, .-lcdWrcmd
 2955 09aa 0000     		.align	2
 2956              		.global	lcdWrdata
 2957              		.code 16
 2958              		.thumb_func
 2959              		.type	lcdWrdata, %function
 2960              	lcdWrdata:
 2961              	.LFB18:
 499:lcd.c         **** 
 500:lcd.c         **** /*****************************************************************************
 501:lcd.c         ****  *
 502:lcd.c         ****  * Description:
 503:lcd.c         ****  *    Send data byte to LCD controller
 504:lcd.c         ****  *
 505:lcd.c         ****  ****************************************************************************/
 506:lcd.c         **** 
 507:lcd.c         **** void lcdWrdata(tU8 data)
 508:lcd.c         **** {
 2962              		.loc 1 508 0
 2963 09ac 80B5     		push	{r7, lr}
 2964              	.LCFI46:
 2965 09ae 81B0     		sub	sp, sp, #4
ARM GAS  /cygdrive/c/Users/embedded/AppData/Local/Temp/cc2R7c4N.s 			page 62


 2966              	.LCFI47:
 2967 09b0 00AF     		add	r7, sp, #0
 2968              	.LCFI48:
 2969 09b2 031C     		mov	r3, r0
 2970 09b4 3A1C     		mov	r2, r7
 2971 09b6 1370     		strb	r3, [r2]
 509:lcd.c         ****   sendToLCD(1, data);
 2972              		.loc 1 509 0
 2973 09b8 3B1C     		mov	r3, r7
 2974 09ba 1B78     		ldrb	r3, [r3]
 2975 09bc 0120     		mov	r0, #1
 2976 09be 191C     		mov	r1, r3
 2977 09c0 FFF7FEFF 		bl	sendToLCD
 510:lcd.c         **** }
 2978              		.loc 1 510 0
 2979 09c4 BD46     		mov	sp, r7
 2980 09c6 01B0     		add	sp, sp, #4
 2981              		@ sp needed for prologue
 2982 09c8 80BC     		pop	{r7}
 2983 09ca 01BC     		pop	{r0}
 2984 09cc 0047     		bx	r0
 2985              	.LFE18:
 2986              		.size	lcdWrdata, .-lcdWrdata
 2987              		.bss
 2988              	lcd_x:
 2989 0000 00       		.space	1
 2990              	lcd_y:
 2991 0001 00       		.space	1
 2992              	bkgColor:
 2993 0002 00       		.space	1
 2994              	textColor:
 2995 0003 00       		.space	1
 2996              	setcolmark:
 2997 0004 00       		.space	1
 2998              		.section	.debug_frame,"",%progbits
 2999              	.Lframe0:
 3000 0000 0C000000 		.4byte	.LECIE0-.LSCIE0
 3001              	.LSCIE0:
 3002 0004 FFFFFFFF 		.4byte	0xffffffff
 3003 0008 01       		.byte	0x1
 3004 0009 00       		.ascii	"\000"
 3005 000a 01       		.uleb128 0x1
 3006 000b 7C       		.sleb128 -4
 3007 000c 0E       		.byte	0xe
 3008 000d 0C       		.byte	0xc
 3009 000e 0D       		.uleb128 0xd
 3010 000f 00       		.uleb128 0x0
 3011              		.align	2
 3012              	.LECIE0:
 3013              	.LSFDE0:
 3014 0010 18000000 		.4byte	.LEFDE0-.LASFDE0
 3015              	.LASFDE0:
 3016 0014 00000000 		.4byte	.Lframe0
 3017 0018 00000000 		.4byte	.LFB2
 3018 001c FC000000 		.4byte	.LFE2-.LFB2
 3019 0020 42       		.byte	0x4
 3020              		.4byte	.LCFI0-.LFB2
ARM GAS  /cygdrive/c/Users/embedded/AppData/Local/Temp/cc2R7c4N.s 			page 63


 3021 0021 0E       		.byte	0xe
 3022 0022 08       		.uleb128 0x8
 3023 0023 87       		.byte	0x87
 3024 0024 02       		.uleb128 0x2
 3025 0025 8E       		.byte	0x8e
 3026 0026 01       		.uleb128 0x1
 3027 0027 42       		.byte	0x4
 3028              		.4byte	.LCFI1-.LCFI0
 3029 0028 0D       		.byte	0xd
 3030 0029 07       		.uleb128 0x7
 3031 002a 0000     		.align	2
 3032              	.LEFDE0:
 3033              	.LSFDE2:
 3034 002c 1C000000 		.4byte	.LEFDE2-.LASFDE2
 3035              	.LASFDE2:
 3036 0030 00000000 		.4byte	.Lframe0
 3037 0034 FC000000 		.4byte	.LFB3
 3038 0038 70000000 		.4byte	.LFE3-.LFB3
 3039 003c 42       		.byte	0x4
 3040              		.4byte	.LCFI2-.LFB3
 3041 003d 0E       		.byte	0xe
 3042 003e 08       		.uleb128 0x8
 3043 003f 87       		.byte	0x87
 3044 0040 02       		.uleb128 0x2
 3045 0041 8E       		.byte	0x8e
 3046 0042 01       		.uleb128 0x1
 3047 0043 42       		.byte	0x4
 3048              		.4byte	.LCFI3-.LCFI2
 3049 0044 0E       		.byte	0xe
 3050 0045 0C       		.uleb128 0xc
 3051 0046 42       		.byte	0x4
 3052              		.4byte	.LCFI4-.LCFI3
 3053 0047 0D       		.byte	0xd
 3054 0048 07       		.uleb128 0x7
 3055 0049 000000   		.align	2
 3056              	.LEFDE2:
 3057              	.LSFDE4:
 3058 004c 18000000 		.4byte	.LEFDE4-.LASFDE4
 3059              	.LASFDE4:
 3060 0050 00000000 		.4byte	.Lframe0
 3061 0054 6C010000 		.4byte	.LFB4
 3062 0058 22000000 		.4byte	.LFE4-.LFB4
 3063 005c 42       		.byte	0x4
 3064              		.4byte	.LCFI5-.LFB4
 3065 005d 0E       		.byte	0xe
 3066 005e 08       		.uleb128 0x8
 3067 005f 87       		.byte	0x87
 3068 0060 02       		.uleb128 0x2
 3069 0061 8E       		.byte	0x8e
 3070 0062 01       		.uleb128 0x1
 3071 0063 42       		.byte	0x4
 3072              		.4byte	.LCFI6-.LCFI5
 3073 0064 0D       		.byte	0xd
 3074 0065 07       		.uleb128 0x7
 3075 0066 0000     		.align	2
 3076              	.LEFDE4:
 3077              	.LSFDE6:
ARM GAS  /cygdrive/c/Users/embedded/AppData/Local/Temp/cc2R7c4N.s 			page 64


 3078 0068 1C000000 		.4byte	.LEFDE6-.LASFDE6
 3079              	.LASFDE6:
 3080 006c 00000000 		.4byte	.Lframe0
 3081 0070 90010000 		.4byte	.LFB5
 3082 0074 34000000 		.4byte	.LFE5-.LFB5
 3083 0078 42       		.byte	0x4
 3084              		.4byte	.LCFI7-.LFB5
 3085 0079 0E       		.byte	0xe
 3086 007a 08       		.uleb128 0x8
 3087 007b 87       		.byte	0x87
 3088 007c 02       		.uleb128 0x2
 3089 007d 8E       		.byte	0x8e
 3090 007e 01       		.uleb128 0x1
 3091 007f 42       		.byte	0x4
 3092              		.4byte	.LCFI8-.LCFI7
 3093 0080 0E       		.byte	0xe
 3094 0081 10       		.uleb128 0x10
 3095 0082 42       		.byte	0x4
 3096              		.4byte	.LCFI9-.LCFI8
 3097 0083 0D       		.byte	0xd
 3098 0084 07       		.uleb128 0x7
 3099 0085 000000   		.align	2
 3100              	.LEFDE6:
 3101              	.LSFDE8:
 3102 0088 1C000000 		.4byte	.LEFDE8-.LASFDE8
 3103              	.LASFDE8:
 3104 008c 00000000 		.4byte	.Lframe0
 3105 0090 C4010000 		.4byte	.LFB6
 3106 0094 32000000 		.4byte	.LFE6-.LFB6
 3107 0098 42       		.byte	0x4
 3108              		.4byte	.LCFI10-.LFB6
 3109 0099 0E       		.byte	0xe
 3110 009a 08       		.uleb128 0x8
 3111 009b 87       		.byte	0x87
 3112 009c 02       		.uleb128 0x2
 3113 009d 8E       		.byte	0x8e
 3114 009e 01       		.uleb128 0x1
 3115 009f 42       		.byte	0x4
 3116              		.4byte	.LCFI11-.LCFI10
 3117 00a0 0E       		.byte	0xe
 3118 00a1 0C       		.uleb128 0xc
 3119 00a2 42       		.byte	0x4
 3120              		.4byte	.LCFI12-.LCFI11
 3121 00a3 0D       		.byte	0xd
 3122 00a4 07       		.uleb128 0x7
 3123 00a5 000000   		.align	2
 3124              	.LEFDE8:
 3125              	.LSFDE10:
 3126 00a8 20000000 		.4byte	.LEFDE10-.LASFDE10
 3127              	.LASFDE10:
 3128 00ac 00000000 		.4byte	.Lframe0
 3129 00b0 F8010000 		.4byte	.LFB7
 3130 00b4 D4000000 		.4byte	.LFE7-.LFB7
 3131 00b8 42       		.byte	0x4
 3132              		.4byte	.LCFI13-.LFB7
 3133 00b9 0E       		.byte	0xe
 3134 00ba 14       		.uleb128 0x14
ARM GAS  /cygdrive/c/Users/embedded/AppData/Local/Temp/cc2R7c4N.s 			page 65


 3135 00bb 84       		.byte	0x84
 3136 00bc 05       		.uleb128 0x5
 3137 00bd 85       		.byte	0x85
 3138 00be 04       		.uleb128 0x4
 3139 00bf 86       		.byte	0x86
 3140 00c0 03       		.uleb128 0x3
 3141 00c1 87       		.byte	0x87
 3142 00c2 02       		.uleb128 0x2
 3143 00c3 8E       		.byte	0x8e
 3144 00c4 01       		.uleb128 0x1
 3145 00c5 42       		.byte	0x4
 3146              		.4byte	.LCFI14-.LCFI13
 3147 00c6 0E       		.byte	0xe
 3148 00c7 30       		.uleb128 0x30
 3149 00c8 42       		.byte	0x4
 3150              		.4byte	.LCFI15-.LCFI14
 3151 00c9 0D       		.byte	0xd
 3152 00ca 07       		.uleb128 0x7
 3153 00cb 00       		.align	2
 3154              	.LEFDE10:
 3155              	.LSFDE12:
 3156 00cc 24000000 		.4byte	.LEFDE12-.LASFDE12
 3157              	.LASFDE12:
 3158 00d0 00000000 		.4byte	.Lframe0
 3159 00d4 CC020000 		.4byte	.LFB8
 3160 00d8 92010000 		.4byte	.LFE8-.LFB8
 3161 00dc 42       		.byte	0x4
 3162              		.4byte	.LCFI16-.LFB8
 3163 00dd 0E       		.byte	0xe
 3164 00de 14       		.uleb128 0x14
 3165 00df 84       		.byte	0x84
 3166 00e0 05       		.uleb128 0x5
 3167 00e1 85       		.byte	0x85
 3168 00e2 04       		.uleb128 0x4
 3169 00e3 86       		.byte	0x86
 3170 00e4 03       		.uleb128 0x3
 3171 00e5 87       		.byte	0x87
 3172 00e6 02       		.uleb128 0x2
 3173 00e7 8E       		.byte	0x8e
 3174 00e8 01       		.uleb128 0x1
 3175 00e9 44       		.byte	0x4
 3176              		.4byte	.LCFI17-.LCFI16
 3177 00ea 0E       		.byte	0xe
 3178 00eb 18       		.uleb128 0x18
 3179 00ec 88       		.byte	0x88
 3180 00ed 06       		.uleb128 0x6
 3181 00ee 42       		.byte	0x4
 3182              		.4byte	.LCFI18-.LCFI17
 3183 00ef 0E       		.byte	0xe
 3184 00f0 3C       		.uleb128 0x3c
 3185 00f1 42       		.byte	0x4
 3186              		.4byte	.LCFI19-.LCFI18
 3187 00f2 0D       		.byte	0xd
 3188 00f3 07       		.uleb128 0x7
 3189              		.align	2
 3190              	.LEFDE12:
 3191              	.LSFDE14:
ARM GAS  /cygdrive/c/Users/embedded/AppData/Local/Temp/cc2R7c4N.s 			page 66


 3192 00f4 20000000 		.4byte	.LEFDE14-.LASFDE14
 3193              	.LASFDE14:
 3194 00f8 00000000 		.4byte	.Lframe0
 3195 00fc 60040000 		.4byte	.LFB9
 3196 0100 D2010000 		.4byte	.LFE9-.LFB9
 3197 0104 42       		.byte	0x4
 3198              		.4byte	.LCFI20-.LFB9
 3199 0105 0E       		.byte	0xe
 3200 0106 14       		.uleb128 0x14
 3201 0107 84       		.byte	0x84
 3202 0108 05       		.uleb128 0x5
 3203 0109 85       		.byte	0x85
 3204 010a 04       		.uleb128 0x4
 3205 010b 86       		.byte	0x86
 3206 010c 03       		.uleb128 0x3
 3207 010d 87       		.byte	0x87
 3208 010e 02       		.uleb128 0x2
 3209 010f 8E       		.byte	0x8e
 3210 0110 01       		.uleb128 0x1
 3211 0111 42       		.byte	0x4
 3212              		.4byte	.LCFI21-.LCFI20
 3213 0112 0E       		.byte	0xe
 3214 0113 38       		.uleb128 0x38
 3215 0114 42       		.byte	0x4
 3216              		.4byte	.LCFI22-.LCFI21
 3217 0115 0D       		.byte	0xd
 3218 0116 07       		.uleb128 0x7
 3219 0117 00       		.align	2
 3220              	.LEFDE14:
 3221              	.LSFDE16:
 3222 0118 1C000000 		.4byte	.LEFDE16-.LASFDE16
 3223              	.LASFDE16:
 3224 011c 00000000 		.4byte	.Lframe0
 3225 0120 34060000 		.4byte	.LFB10
 3226 0124 48000000 		.4byte	.LFE10-.LFB10
 3227 0128 42       		.byte	0x4
 3228              		.4byte	.LCFI23-.LFB10
 3229 0129 0E       		.byte	0xe
 3230 012a 08       		.uleb128 0x8
 3231 012b 87       		.byte	0x87
 3232 012c 02       		.uleb128 0x2
 3233 012d 8E       		.byte	0x8e
 3234 012e 01       		.uleb128 0x1
 3235 012f 42       		.byte	0x4
 3236              		.4byte	.LCFI24-.LCFI23
 3237 0130 0E       		.byte	0xe
 3238 0131 10       		.uleb128 0x10
 3239 0132 42       		.byte	0x4
 3240              		.4byte	.LCFI25-.LCFI24
 3241 0133 0D       		.byte	0xd
 3242 0134 07       		.uleb128 0x7
 3243 0135 000000   		.align	2
 3244              	.LEFDE16:
 3245              	.LSFDE18:
 3246 0138 20000000 		.4byte	.LEFDE18-.LASFDE18
 3247              	.LASFDE18:
 3248 013c 00000000 		.4byte	.Lframe0
ARM GAS  /cygdrive/c/Users/embedded/AppData/Local/Temp/cc2R7c4N.s 			page 67


 3249 0140 7C060000 		.4byte	.LFB11
 3250 0144 58000000 		.4byte	.LFE11-.LFB11
 3251 0148 42       		.byte	0x4
 3252              		.4byte	.LCFI26-.LFB11
 3253 0149 0E       		.byte	0xe
 3254 014a 10       		.uleb128 0x10
 3255 014b 84       		.byte	0x84
 3256 014c 04       		.uleb128 0x4
 3257 014d 85       		.byte	0x85
 3258 014e 03       		.uleb128 0x3
 3259 014f 87       		.byte	0x87
 3260 0150 02       		.uleb128 0x2
 3261 0151 8E       		.byte	0x8e
 3262 0152 01       		.uleb128 0x1
 3263 0153 42       		.byte	0x4
 3264              		.4byte	.LCFI27-.LCFI26
 3265 0154 0E       		.byte	0xe
 3266 0155 20       		.uleb128 0x20
 3267 0156 42       		.byte	0x4
 3268              		.4byte	.LCFI28-.LCFI27
 3269 0157 0D       		.byte	0xd
 3270 0158 07       		.uleb128 0x7
 3271 0159 000000   		.align	2
 3272              	.LEFDE18:
 3273              	.LSFDE20:
 3274 015c 20000000 		.4byte	.LEFDE20-.LASFDE20
 3275              	.LASFDE20:
 3276 0160 00000000 		.4byte	.Lframe0
 3277 0164 D4060000 		.4byte	.LFB12
 3278 0168 80000000 		.4byte	.LFE12-.LFB12
 3279 016c 42       		.byte	0x4
 3280              		.4byte	.LCFI29-.LFB12
 3281 016d 0E       		.byte	0xe
 3282 016e 10       		.uleb128 0x10
 3283 016f 84       		.byte	0x84
 3284 0170 04       		.uleb128 0x4
 3285 0171 85       		.byte	0x85
 3286 0172 03       		.uleb128 0x3
 3287 0173 87       		.byte	0x87
 3288 0174 02       		.uleb128 0x2
 3289 0175 8E       		.byte	0x8e
 3290 0176 01       		.uleb128 0x1
 3291 0177 42       		.byte	0x4
 3292              		.4byte	.LCFI30-.LCFI29
 3293 0178 0E       		.byte	0xe
 3294 0179 20       		.uleb128 0x20
 3295 017a 42       		.byte	0x4
 3296              		.4byte	.LCFI31-.LCFI30
 3297 017b 0D       		.byte	0xd
 3298 017c 07       		.uleb128 0x7
 3299 017d 000000   		.align	2
 3300              	.LEFDE20:
 3301              	.LSFDE22:
 3302 0180 18000000 		.4byte	.LEFDE22-.LASFDE22
 3303              	.LASFDE22:
 3304 0184 00000000 		.4byte	.Lframe0
 3305 0188 54070000 		.4byte	.LFB13
ARM GAS  /cygdrive/c/Users/embedded/AppData/Local/Temp/cc2R7c4N.s 			page 68


 3306 018c 38000000 		.4byte	.LFE13-.LFB13
 3307 0190 42       		.byte	0x4
 3308              		.4byte	.LCFI32-.LFB13
 3309 0191 0E       		.byte	0xe
 3310 0192 08       		.uleb128 0x8
 3311 0193 87       		.byte	0x87
 3312 0194 02       		.uleb128 0x2
 3313 0195 8E       		.byte	0x8e
 3314 0196 01       		.uleb128 0x1
 3315 0197 42       		.byte	0x4
 3316              		.4byte	.LCFI33-.LCFI32
 3317 0198 0C       		.byte	0xc
 3318 0199 07       		.uleb128 0x7
 3319 019a 00       		.uleb128 0x0
 3320 019b 00       		.align	2
 3321              	.LEFDE22:
 3322              	.LSFDE24:
 3323 019c 1C000000 		.4byte	.LEFDE24-.LASFDE24
 3324              	.LASFDE24:
 3325 01a0 00000000 		.4byte	.Lframe0
 3326 01a4 8C070000 		.4byte	.LFB14
 3327 01a8 50010000 		.4byte	.LFE14-.LFB14
 3328 01ac 42       		.byte	0x4
 3329              		.4byte	.LCFI34-.LFB14
 3330 01ad 0E       		.byte	0xe
 3331 01ae 08       		.uleb128 0x8
 3332 01af 87       		.byte	0x87
 3333 01b0 02       		.uleb128 0x2
 3334 01b1 8E       		.byte	0x8e
 3335 01b2 01       		.uleb128 0x1
 3336 01b3 42       		.byte	0x4
 3337              		.4byte	.LCFI35-.LCFI34
 3338 01b4 0E       		.byte	0xe
 3339 01b5 14       		.uleb128 0x14
 3340 01b6 42       		.byte	0x4
 3341              		.4byte	.LCFI36-.LCFI35
 3342 01b7 0D       		.byte	0xd
 3343 01b8 07       		.uleb128 0x7
 3344 01b9 000000   		.align	2
 3345              	.LEFDE24:
 3346              	.LSFDE26:
 3347 01bc 1C000000 		.4byte	.LEFDE26-.LASFDE26
 3348              	.LASFDE26:
 3349 01c0 00000000 		.4byte	.Lframe0
 3350 01c4 DC080000 		.4byte	.LFB15
 3351 01c8 74000000 		.4byte	.LFE15-.LFB15
 3352 01cc 42       		.byte	0x4
 3353              		.4byte	.LCFI37-.LFB15
 3354 01cd 0E       		.byte	0xe
 3355 01ce 08       		.uleb128 0x8
 3356 01cf 87       		.byte	0x87
 3357 01d0 02       		.uleb128 0x2
 3358 01d1 8E       		.byte	0x8e
 3359 01d2 01       		.uleb128 0x1
 3360 01d3 42       		.byte	0x4
 3361              		.4byte	.LCFI38-.LCFI37
 3362 01d4 0E       		.byte	0xe
ARM GAS  /cygdrive/c/Users/embedded/AppData/Local/Temp/cc2R7c4N.s 			page 69


 3363 01d5 0C       		.uleb128 0xc
 3364 01d6 42       		.byte	0x4
 3365              		.4byte	.LCFI39-.LCFI38
 3366 01d7 0D       		.byte	0xd
 3367 01d8 07       		.uleb128 0x7
 3368 01d9 000000   		.align	2
 3369              	.LEFDE26:
 3370              	.LSFDE28:
 3371 01dc 1C000000 		.4byte	.LEFDE28-.LASFDE28
 3372              	.LASFDE28:
 3373 01e0 00000000 		.4byte	.Lframe0
 3374 01e4 50090000 		.4byte	.LFB16
 3375 01e8 38000000 		.4byte	.LFE16-.LFB16
 3376 01ec 42       		.byte	0x4
 3377              		.4byte	.LCFI40-.LFB16
 3378 01ed 0E       		.byte	0xe
 3379 01ee 08       		.uleb128 0x8
 3380 01ef 87       		.byte	0x87
 3381 01f0 02       		.uleb128 0x2
 3382 01f1 8E       		.byte	0x8e
 3383 01f2 01       		.uleb128 0x1
 3384 01f3 42       		.byte	0x4
 3385              		.4byte	.LCFI41-.LCFI40
 3386 01f4 0E       		.byte	0xe
 3387 01f5 0C       		.uleb128 0xc
 3388 01f6 42       		.byte	0x4
 3389              		.4byte	.LCFI42-.LCFI41
 3390 01f7 0D       		.byte	0xd
 3391 01f8 07       		.uleb128 0x7
 3392 01f9 000000   		.align	2
 3393              	.LEFDE28:
 3394              	.LSFDE30:
 3395 01fc 1C000000 		.4byte	.LEFDE30-.LASFDE30
 3396              	.LASFDE30:
 3397 0200 00000000 		.4byte	.Lframe0
 3398 0204 88090000 		.4byte	.LFB17
 3399 0208 22000000 		.4byte	.LFE17-.LFB17
 3400 020c 42       		.byte	0x4
 3401              		.4byte	.LCFI43-.LFB17
 3402 020d 0E       		.byte	0xe
 3403 020e 08       		.uleb128 0x8
 3404 020f 87       		.byte	0x87
 3405 0210 02       		.uleb128 0x2
 3406 0211 8E       		.byte	0x8e
 3407 0212 01       		.uleb128 0x1
 3408 0213 42       		.byte	0x4
 3409              		.4byte	.LCFI44-.LCFI43
 3410 0214 0E       		.byte	0xe
 3411 0215 0C       		.uleb128 0xc
 3412 0216 42       		.byte	0x4
 3413              		.4byte	.LCFI45-.LCFI44
 3414 0217 0D       		.byte	0xd
 3415 0218 07       		.uleb128 0x7
 3416 0219 000000   		.align	2
 3417              	.LEFDE30:
 3418              	.LSFDE32:
 3419 021c 1C000000 		.4byte	.LEFDE32-.LASFDE32
ARM GAS  /cygdrive/c/Users/embedded/AppData/Local/Temp/cc2R7c4N.s 			page 70


 3420              	.LASFDE32:
 3421 0220 00000000 		.4byte	.Lframe0
 3422 0224 AC090000 		.4byte	.LFB18
 3423 0228 22000000 		.4byte	.LFE18-.LFB18
 3424 022c 42       		.byte	0x4
 3425              		.4byte	.LCFI46-.LFB18
 3426 022d 0E       		.byte	0xe
 3427 022e 08       		.uleb128 0x8
 3428 022f 87       		.byte	0x87
 3429 0230 02       		.uleb128 0x2
 3430 0231 8E       		.byte	0x8e
 3431 0232 01       		.uleb128 0x1
 3432 0233 42       		.byte	0x4
 3433              		.4byte	.LCFI47-.LCFI46
 3434 0234 0E       		.byte	0xe
 3435 0235 0C       		.uleb128 0xc
 3436 0236 42       		.byte	0x4
 3437              		.4byte	.LCFI48-.LCFI47
 3438 0237 0D       		.byte	0xd
 3439 0238 07       		.uleb128 0x7
 3440 0239 000000   		.align	2
 3441              	.LEFDE32:
 3442              		.file 2 "general.h"
 3443              		.file 3 "ascii.h"
 3444              		.text
 3445              	.Letext0:
 3446 09ce C046     		.section	.debug_loc,"",%progbits
 3447              	.Ldebug_loc0:
 3448              	.LLST0:
 3449 0000 00000000 		.4byte	.LFB2-.Ltext0
 3450 0004 02000000 		.4byte	.LCFI0-.Ltext0
 3451 0008 0100     		.2byte	0x1
 3452 000a 5D       		.byte	0x5d
 3453 000b 02000000 		.4byte	.LCFI0-.Ltext0
 3454 000f 04000000 		.4byte	.LCFI1-.Ltext0
 3455 0013 0200     		.2byte	0x2
 3456 0015 7D       		.byte	0x7d
 3457 0016 08       		.sleb128 8
 3458 0017 04000000 		.4byte	.LCFI1-.Ltext0
 3459 001b FC000000 		.4byte	.LFE2-.Ltext0
 3460 001f 0200     		.2byte	0x2
 3461 0021 77       		.byte	0x77
 3462 0022 08       		.sleb128 8
 3463 0023 00000000 		.4byte	0x0
 3464 0027 00000000 		.4byte	0x0
 3465              	.LLST1:
 3466 002b FC000000 		.4byte	.LFB3-.Ltext0
 3467 002f FE000000 		.4byte	.LCFI2-.Ltext0
 3468 0033 0100     		.2byte	0x1
 3469 0035 5D       		.byte	0x5d
 3470 0036 FE000000 		.4byte	.LCFI2-.Ltext0
 3471 003a 00010000 		.4byte	.LCFI3-.Ltext0
 3472 003e 0200     		.2byte	0x2
 3473 0040 7D       		.byte	0x7d
 3474 0041 08       		.sleb128 8
 3475 0042 00010000 		.4byte	.LCFI3-.Ltext0
 3476 0046 02010000 		.4byte	.LCFI4-.Ltext0
ARM GAS  /cygdrive/c/Users/embedded/AppData/Local/Temp/cc2R7c4N.s 			page 71


 3477 004a 0200     		.2byte	0x2
 3478 004c 7D       		.byte	0x7d
 3479 004d 0C       		.sleb128 12
 3480 004e 02010000 		.4byte	.LCFI4-.Ltext0
 3481 0052 6C010000 		.4byte	.LFE3-.Ltext0
 3482 0056 0200     		.2byte	0x2
 3483 0058 77       		.byte	0x77
 3484 0059 0C       		.sleb128 12
 3485 005a 00000000 		.4byte	0x0
 3486 005e 00000000 		.4byte	0x0
 3487              	.LLST2:
 3488 0062 6C010000 		.4byte	.LFB4-.Ltext0
 3489 0066 6E010000 		.4byte	.LCFI5-.Ltext0
 3490 006a 0100     		.2byte	0x1
 3491 006c 5D       		.byte	0x5d
 3492 006d 6E010000 		.4byte	.LCFI5-.Ltext0
 3493 0071 70010000 		.4byte	.LCFI6-.Ltext0
 3494 0075 0200     		.2byte	0x2
 3495 0077 7D       		.byte	0x7d
 3496 0078 08       		.sleb128 8
 3497 0079 70010000 		.4byte	.LCFI6-.Ltext0
 3498 007d 8E010000 		.4byte	.LFE4-.Ltext0
 3499 0081 0200     		.2byte	0x2
 3500 0083 77       		.byte	0x77
 3501 0084 08       		.sleb128 8
 3502 0085 00000000 		.4byte	0x0
 3503 0089 00000000 		.4byte	0x0
 3504              	.LLST3:
 3505 008d 90010000 		.4byte	.LFB5-.Ltext0
 3506 0091 92010000 		.4byte	.LCFI7-.Ltext0
 3507 0095 0100     		.2byte	0x1
 3508 0097 5D       		.byte	0x5d
 3509 0098 92010000 		.4byte	.LCFI7-.Ltext0
 3510 009c 94010000 		.4byte	.LCFI8-.Ltext0
 3511 00a0 0200     		.2byte	0x2
 3512 00a2 7D       		.byte	0x7d
 3513 00a3 08       		.sleb128 8
 3514 00a4 94010000 		.4byte	.LCFI8-.Ltext0
 3515 00a8 96010000 		.4byte	.LCFI9-.Ltext0
 3516 00ac 0200     		.2byte	0x2
 3517 00ae 7D       		.byte	0x7d
 3518 00af 10       		.sleb128 16
 3519 00b0 96010000 		.4byte	.LCFI9-.Ltext0
 3520 00b4 C4010000 		.4byte	.LFE5-.Ltext0
 3521 00b8 0200     		.2byte	0x2
 3522 00ba 77       		.byte	0x77
 3523 00bb 10       		.sleb128 16
 3524 00bc 00000000 		.4byte	0x0
 3525 00c0 00000000 		.4byte	0x0
 3526              	.LLST4:
 3527 00c4 C4010000 		.4byte	.LFB6-.Ltext0
 3528 00c8 C6010000 		.4byte	.LCFI10-.Ltext0
 3529 00cc 0100     		.2byte	0x1
 3530 00ce 5D       		.byte	0x5d
 3531 00cf C6010000 		.4byte	.LCFI10-.Ltext0
 3532 00d3 C8010000 		.4byte	.LCFI11-.Ltext0
 3533 00d7 0200     		.2byte	0x2
ARM GAS  /cygdrive/c/Users/embedded/AppData/Local/Temp/cc2R7c4N.s 			page 72


 3534 00d9 7D       		.byte	0x7d
 3535 00da 08       		.sleb128 8
 3536 00db C8010000 		.4byte	.LCFI11-.Ltext0
 3537 00df CA010000 		.4byte	.LCFI12-.Ltext0
 3538 00e3 0200     		.2byte	0x2
 3539 00e5 7D       		.byte	0x7d
 3540 00e6 0C       		.sleb128 12
 3541 00e7 CA010000 		.4byte	.LCFI12-.Ltext0
 3542 00eb F6010000 		.4byte	.LFE6-.Ltext0
 3543 00ef 0200     		.2byte	0x2
 3544 00f1 77       		.byte	0x77
 3545 00f2 0C       		.sleb128 12
 3546 00f3 00000000 		.4byte	0x0
 3547 00f7 00000000 		.4byte	0x0
 3548              	.LLST5:
 3549 00fb F8010000 		.4byte	.LFB7-.Ltext0
 3550 00ff FA010000 		.4byte	.LCFI13-.Ltext0
 3551 0103 0100     		.2byte	0x1
 3552 0105 5D       		.byte	0x5d
 3553 0106 FA010000 		.4byte	.LCFI13-.Ltext0
 3554 010a FC010000 		.4byte	.LCFI14-.Ltext0
 3555 010e 0200     		.2byte	0x2
 3556 0110 7D       		.byte	0x7d
 3557 0111 14       		.sleb128 20
 3558 0112 FC010000 		.4byte	.LCFI14-.Ltext0
 3559 0116 FE010000 		.4byte	.LCFI15-.Ltext0
 3560 011a 0200     		.2byte	0x2
 3561 011c 7D       		.byte	0x7d
 3562 011d 30       		.sleb128 48
 3563 011e FE010000 		.4byte	.LCFI15-.Ltext0
 3564 0122 CC020000 		.4byte	.LFE7-.Ltext0
 3565 0126 0200     		.2byte	0x2
 3566 0128 77       		.byte	0x77
 3567 0129 30       		.sleb128 48
 3568 012a 00000000 		.4byte	0x0
 3569 012e 00000000 		.4byte	0x0
 3570              	.LLST6:
 3571 0132 CC020000 		.4byte	.LFB8-.Ltext0
 3572 0136 CE020000 		.4byte	.LCFI16-.Ltext0
 3573 013a 0100     		.2byte	0x1
 3574 013c 5D       		.byte	0x5d
 3575 013d CE020000 		.4byte	.LCFI16-.Ltext0
 3576 0141 D2020000 		.4byte	.LCFI17-.Ltext0
 3577 0145 0200     		.2byte	0x2
 3578 0147 7D       		.byte	0x7d
 3579 0148 14       		.sleb128 20
 3580 0149 D2020000 		.4byte	.LCFI17-.Ltext0
 3581 014d D4020000 		.4byte	.LCFI18-.Ltext0
 3582 0151 0200     		.2byte	0x2
 3583 0153 7D       		.byte	0x7d
 3584 0154 18       		.sleb128 24
 3585 0155 D4020000 		.4byte	.LCFI18-.Ltext0
 3586 0159 D6020000 		.4byte	.LCFI19-.Ltext0
 3587 015d 0200     		.2byte	0x2
 3588 015f 7D       		.byte	0x7d
 3589 0160 3C       		.sleb128 60
 3590 0161 D6020000 		.4byte	.LCFI19-.Ltext0
ARM GAS  /cygdrive/c/Users/embedded/AppData/Local/Temp/cc2R7c4N.s 			page 73


 3591 0165 5E040000 		.4byte	.LFE8-.Ltext0
 3592 0169 0200     		.2byte	0x2
 3593 016b 77       		.byte	0x77
 3594 016c 3C       		.sleb128 60
 3595 016d 00000000 		.4byte	0x0
 3596 0171 00000000 		.4byte	0x0
 3597              	.LLST7:
 3598 0175 60040000 		.4byte	.LFB9-.Ltext0
 3599 0179 62040000 		.4byte	.LCFI20-.Ltext0
 3600 017d 0100     		.2byte	0x1
 3601 017f 5D       		.byte	0x5d
 3602 0180 62040000 		.4byte	.LCFI20-.Ltext0
 3603 0184 64040000 		.4byte	.LCFI21-.Ltext0
 3604 0188 0200     		.2byte	0x2
 3605 018a 7D       		.byte	0x7d
 3606 018b 14       		.sleb128 20
 3607 018c 64040000 		.4byte	.LCFI21-.Ltext0
 3608 0190 66040000 		.4byte	.LCFI22-.Ltext0
 3609 0194 0200     		.2byte	0x2
 3610 0196 7D       		.byte	0x7d
 3611 0197 38       		.sleb128 56
 3612 0198 66040000 		.4byte	.LCFI22-.Ltext0
 3613 019c 32060000 		.4byte	.LFE9-.Ltext0
 3614 01a0 0200     		.2byte	0x2
 3615 01a2 77       		.byte	0x77
 3616 01a3 38       		.sleb128 56
 3617 01a4 00000000 		.4byte	0x0
 3618 01a8 00000000 		.4byte	0x0
 3619              	.LLST8:
 3620 01ac 34060000 		.4byte	.LFB10-.Ltext0
 3621 01b0 36060000 		.4byte	.LCFI23-.Ltext0
 3622 01b4 0100     		.2byte	0x1
 3623 01b6 5D       		.byte	0x5d
 3624 01b7 36060000 		.4byte	.LCFI23-.Ltext0
 3625 01bb 38060000 		.4byte	.LCFI24-.Ltext0
 3626 01bf 0200     		.2byte	0x2
 3627 01c1 7D       		.byte	0x7d
 3628 01c2 08       		.sleb128 8
 3629 01c3 38060000 		.4byte	.LCFI24-.Ltext0
 3630 01c7 3A060000 		.4byte	.LCFI25-.Ltext0
 3631 01cb 0200     		.2byte	0x2
 3632 01cd 7D       		.byte	0x7d
 3633 01ce 10       		.sleb128 16
 3634 01cf 3A060000 		.4byte	.LCFI25-.Ltext0
 3635 01d3 7C060000 		.4byte	.LFE10-.Ltext0
 3636 01d7 0200     		.2byte	0x2
 3637 01d9 77       		.byte	0x77
 3638 01da 10       		.sleb128 16
 3639 01db 00000000 		.4byte	0x0
 3640 01df 00000000 		.4byte	0x0
 3641              	.LLST9:
 3642 01e3 7C060000 		.4byte	.LFB11-.Ltext0
 3643 01e7 7E060000 		.4byte	.LCFI26-.Ltext0
 3644 01eb 0100     		.2byte	0x1
 3645 01ed 5D       		.byte	0x5d
 3646 01ee 7E060000 		.4byte	.LCFI26-.Ltext0
 3647 01f2 80060000 		.4byte	.LCFI27-.Ltext0
ARM GAS  /cygdrive/c/Users/embedded/AppData/Local/Temp/cc2R7c4N.s 			page 74


 3648 01f6 0200     		.2byte	0x2
 3649 01f8 7D       		.byte	0x7d
 3650 01f9 10       		.sleb128 16
 3651 01fa 80060000 		.4byte	.LCFI27-.Ltext0
 3652 01fe 82060000 		.4byte	.LCFI28-.Ltext0
 3653 0202 0200     		.2byte	0x2
 3654 0204 7D       		.byte	0x7d
 3655 0205 20       		.sleb128 32
 3656 0206 82060000 		.4byte	.LCFI28-.Ltext0
 3657 020a D4060000 		.4byte	.LFE11-.Ltext0
 3658 020e 0200     		.2byte	0x2
 3659 0210 77       		.byte	0x77
 3660 0211 20       		.sleb128 32
 3661 0212 00000000 		.4byte	0x0
 3662 0216 00000000 		.4byte	0x0
 3663              	.LLST10:
 3664 021a D4060000 		.4byte	.LFB12-.Ltext0
 3665 021e D6060000 		.4byte	.LCFI29-.Ltext0
 3666 0222 0100     		.2byte	0x1
 3667 0224 5D       		.byte	0x5d
 3668 0225 D6060000 		.4byte	.LCFI29-.Ltext0
 3669 0229 D8060000 		.4byte	.LCFI30-.Ltext0
 3670 022d 0200     		.2byte	0x2
 3671 022f 7D       		.byte	0x7d
 3672 0230 10       		.sleb128 16
 3673 0231 D8060000 		.4byte	.LCFI30-.Ltext0
 3674 0235 DA060000 		.4byte	.LCFI31-.Ltext0
 3675 0239 0200     		.2byte	0x2
 3676 023b 7D       		.byte	0x7d
 3677 023c 20       		.sleb128 32
 3678 023d DA060000 		.4byte	.LCFI31-.Ltext0
 3679 0241 54070000 		.4byte	.LFE12-.Ltext0
 3680 0245 0200     		.2byte	0x2
 3681 0247 77       		.byte	0x77
 3682 0248 20       		.sleb128 32
 3683 0249 00000000 		.4byte	0x0
 3684 024d 00000000 		.4byte	0x0
 3685              	.LLST11:
 3686 0251 54070000 		.4byte	.LFB13-.Ltext0
 3687 0255 56070000 		.4byte	.LCFI32-.Ltext0
 3688 0259 0100     		.2byte	0x1
 3689 025b 5D       		.byte	0x5d
 3690 025c 56070000 		.4byte	.LCFI32-.Ltext0
 3691 0260 58070000 		.4byte	.LCFI33-.Ltext0
 3692 0264 0200     		.2byte	0x2
 3693 0266 7D       		.byte	0x7d
 3694 0267 08       		.sleb128 8
 3695 0268 58070000 		.4byte	.LCFI33-.Ltext0
 3696 026c 8C070000 		.4byte	.LFE13-.Ltext0
 3697 0270 0100     		.2byte	0x1
 3698 0272 57       		.byte	0x57
 3699 0273 00000000 		.4byte	0x0
 3700 0277 00000000 		.4byte	0x0
 3701              	.LLST12:
 3702 027b 8C070000 		.4byte	.LFB14-.Ltext0
 3703 027f 8E070000 		.4byte	.LCFI34-.Ltext0
 3704 0283 0100     		.2byte	0x1
ARM GAS  /cygdrive/c/Users/embedded/AppData/Local/Temp/cc2R7c4N.s 			page 75


 3705 0285 5D       		.byte	0x5d
 3706 0286 8E070000 		.4byte	.LCFI34-.Ltext0
 3707 028a 90070000 		.4byte	.LCFI35-.Ltext0
 3708 028e 0200     		.2byte	0x2
 3709 0290 7D       		.byte	0x7d
 3710 0291 08       		.sleb128 8
 3711 0292 90070000 		.4byte	.LCFI35-.Ltext0
 3712 0296 92070000 		.4byte	.LCFI36-.Ltext0
 3713 029a 0200     		.2byte	0x2
 3714 029c 7D       		.byte	0x7d
 3715 029d 14       		.sleb128 20
 3716 029e 92070000 		.4byte	.LCFI36-.Ltext0
 3717 02a2 DC080000 		.4byte	.LFE14-.Ltext0
 3718 02a6 0200     		.2byte	0x2
 3719 02a8 77       		.byte	0x77
 3720 02a9 14       		.sleb128 20
 3721 02aa 00000000 		.4byte	0x0
 3722 02ae 00000000 		.4byte	0x0
 3723              	.LLST13:
 3724 02b2 DC080000 		.4byte	.LFB15-.Ltext0
 3725 02b6 DE080000 		.4byte	.LCFI37-.Ltext0
 3726 02ba 0100     		.2byte	0x1
 3727 02bc 5D       		.byte	0x5d
 3728 02bd DE080000 		.4byte	.LCFI37-.Ltext0
 3729 02c1 E0080000 		.4byte	.LCFI38-.Ltext0
 3730 02c5 0200     		.2byte	0x2
 3731 02c7 7D       		.byte	0x7d
 3732 02c8 08       		.sleb128 8
 3733 02c9 E0080000 		.4byte	.LCFI38-.Ltext0
 3734 02cd E2080000 		.4byte	.LCFI39-.Ltext0
 3735 02d1 0200     		.2byte	0x2
 3736 02d3 7D       		.byte	0x7d
 3737 02d4 0C       		.sleb128 12
 3738 02d5 E2080000 		.4byte	.LCFI39-.Ltext0
 3739 02d9 50090000 		.4byte	.LFE15-.Ltext0
 3740 02dd 0200     		.2byte	0x2
 3741 02df 77       		.byte	0x77
 3742 02e0 0C       		.sleb128 12
 3743 02e1 00000000 		.4byte	0x0
 3744 02e5 00000000 		.4byte	0x0
 3745              	.LLST14:
 3746 02e9 50090000 		.4byte	.LFB16-.Ltext0
 3747 02ed 52090000 		.4byte	.LCFI40-.Ltext0
 3748 02f1 0100     		.2byte	0x1
 3749 02f3 5D       		.byte	0x5d
 3750 02f4 52090000 		.4byte	.LCFI40-.Ltext0
 3751 02f8 54090000 		.4byte	.LCFI41-.Ltext0
 3752 02fc 0200     		.2byte	0x2
 3753 02fe 7D       		.byte	0x7d
 3754 02ff 08       		.sleb128 8
 3755 0300 54090000 		.4byte	.LCFI41-.Ltext0
 3756 0304 56090000 		.4byte	.LCFI42-.Ltext0
 3757 0308 0200     		.2byte	0x2
 3758 030a 7D       		.byte	0x7d
 3759 030b 0C       		.sleb128 12
 3760 030c 56090000 		.4byte	.LCFI42-.Ltext0
 3761 0310 88090000 		.4byte	.LFE16-.Ltext0
ARM GAS  /cygdrive/c/Users/embedded/AppData/Local/Temp/cc2R7c4N.s 			page 76


 3762 0314 0200     		.2byte	0x2
 3763 0316 77       		.byte	0x77
 3764 0317 0C       		.sleb128 12
 3765 0318 00000000 		.4byte	0x0
 3766 031c 00000000 		.4byte	0x0
 3767              	.LLST15:
 3768 0320 88090000 		.4byte	.LFB17-.Ltext0
 3769 0324 8A090000 		.4byte	.LCFI43-.Ltext0
 3770 0328 0100     		.2byte	0x1
 3771 032a 5D       		.byte	0x5d
 3772 032b 8A090000 		.4byte	.LCFI43-.Ltext0
 3773 032f 8C090000 		.4byte	.LCFI44-.Ltext0
 3774 0333 0200     		.2byte	0x2
 3775 0335 7D       		.byte	0x7d
 3776 0336 08       		.sleb128 8
 3777 0337 8C090000 		.4byte	.LCFI44-.Ltext0
 3778 033b 8E090000 		.4byte	.LCFI45-.Ltext0
 3779 033f 0200     		.2byte	0x2
 3780 0341 7D       		.byte	0x7d
 3781 0342 0C       		.sleb128 12
 3782 0343 8E090000 		.4byte	.LCFI45-.Ltext0
 3783 0347 AA090000 		.4byte	.LFE17-.Ltext0
 3784 034b 0200     		.2byte	0x2
 3785 034d 77       		.byte	0x77
 3786 034e 0C       		.sleb128 12
 3787 034f 00000000 		.4byte	0x0
 3788 0353 00000000 		.4byte	0x0
 3789              	.LLST16:
 3790 0357 AC090000 		.4byte	.LFB18-.Ltext0
 3791 035b AE090000 		.4byte	.LCFI46-.Ltext0
 3792 035f 0100     		.2byte	0x1
 3793 0361 5D       		.byte	0x5d
 3794 0362 AE090000 		.4byte	.LCFI46-.Ltext0
 3795 0366 B0090000 		.4byte	.LCFI47-.Ltext0
 3796 036a 0200     		.2byte	0x2
 3797 036c 7D       		.byte	0x7d
 3798 036d 08       		.sleb128 8
 3799 036e B0090000 		.4byte	.LCFI47-.Ltext0
 3800 0372 B2090000 		.4byte	.LCFI48-.Ltext0
 3801 0376 0200     		.2byte	0x2
 3802 0378 7D       		.byte	0x7d
 3803 0379 0C       		.sleb128 12
 3804 037a B2090000 		.4byte	.LCFI48-.Ltext0
 3805 037e CE090000 		.4byte	.LFE18-.Ltext0
 3806 0382 0200     		.2byte	0x2
 3807 0384 77       		.byte	0x77
 3808 0385 0C       		.sleb128 12
 3809 0386 00000000 		.4byte	0x0
 3810 038a 00000000 		.4byte	0x0
 3811              		.section	.debug_info
 3812 0000 AF060000 		.4byte	0x6af
 3813 0004 0200     		.2byte	0x2
 3814 0006 00000000 		.4byte	.Ldebug_abbrev0
 3815 000a 04       		.byte	0x4
 3816 000b 01       		.uleb128 0x1
 3817 000c 00000000 		.4byte	.Ldebug_line0
 3818 0010 CE090000 		.4byte	.Letext0
ARM GAS  /cygdrive/c/Users/embedded/AppData/Local/Temp/cc2R7c4N.s 			page 77


 3819 0014 00000000 		.4byte	.Ltext0
 3820 0018 474E5520 		.ascii	"GNU C 4.1.1\000"
 3820      4320342E 
 3820      312E3100 
 3821 0024 01       		.byte	0x1
 3822 0025 6C63642E 		.ascii	"lcd.c\000"
 3822      6300
 3823 002b 2F637967 		.ascii	"/cygdrive/c/Embedded/eclipse/Demo/2138\000"
 3823      64726976 
 3823      652F632F 
 3823      456D6265 
 3823      64646564 
 3824 0052 02       		.uleb128 0x2
 3825 0053 74553800 		.ascii	"tU8\000"
 3826 0057 02       		.byte	0x2
 3827 0058 16       		.byte	0x16
 3828 0059 5D000000 		.4byte	0x5d
 3829 005d 03       		.uleb128 0x3
 3830 005e 756E7369 		.ascii	"unsigned char\000"
 3830      676E6564 
 3830      20636861 
 3830      7200
 3831 006c 01       		.byte	0x1
 3832 006d 08       		.byte	0x8
 3833 006e 03       		.uleb128 0x3
 3834 006f 73686F72 		.ascii	"short unsigned int\000"
 3834      7420756E 
 3834      7369676E 
 3834      65642069 
 3834      6E7400
 3835 0082 02       		.byte	0x2
 3836 0083 07       		.byte	0x7
 3837 0084 02       		.uleb128 0x2
 3838 0085 74553332 		.ascii	"tU32\000"
 3838      00
 3839 008a 02       		.byte	0x2
 3840 008b 18       		.byte	0x18
 3841 008c 90000000 		.4byte	0x90
 3842 0090 03       		.uleb128 0x3
 3843 0091 756E7369 		.ascii	"unsigned int\000"
 3843      676E6564 
 3843      20696E74 
 3843      00
 3844 009e 04       		.byte	0x4
 3845 009f 07       		.byte	0x7
 3846 00a0 03       		.uleb128 0x3
 3847 00a1 6C6F6E67 		.ascii	"long long unsigned int\000"
 3847      206C6F6E 
 3847      6720756E 
 3847      7369676E 
 3847      65642069 
 3848 00b8 08       		.byte	0x8
 3849 00b9 07       		.byte	0x7
 3850 00ba 03       		.uleb128 0x3
 3851 00bb 7369676E 		.ascii	"signed char\000"
 3851      65642063 
 3851      68617200 
ARM GAS  /cygdrive/c/Users/embedded/AppData/Local/Temp/cc2R7c4N.s 			page 78


 3852 00c7 01       		.byte	0x1
 3853 00c8 06       		.byte	0x6
 3854 00c9 03       		.uleb128 0x3
 3855 00ca 73686F72 		.ascii	"short int\000"
 3855      7420696E 
 3855      7400
 3856 00d4 02       		.byte	0x2
 3857 00d5 05       		.byte	0x5
 3858 00d6 02       		.uleb128 0x2
 3859 00d7 74533332 		.ascii	"tS32\000"
 3859      00
 3860 00dc 02       		.byte	0x2
 3861 00dd 1C       		.byte	0x1c
 3862 00de E2000000 		.4byte	0xe2
 3863 00e2 03       		.uleb128 0x3
 3864 00e3 696E7400 		.ascii	"int\000"
 3865 00e7 04       		.byte	0x4
 3866 00e8 05       		.byte	0x5
 3867 00e9 03       		.uleb128 0x3
 3868 00ea 6C6F6E67 		.ascii	"long long int\000"
 3868      206C6F6E 
 3868      6720696E 
 3868      7400
 3869 00f8 08       		.byte	0x8
 3870 00f9 05       		.byte	0x5
 3871 00fa 04       		.uleb128 0x4
 3872 00fb 01       		.byte	0x1
 3873 00fc 6C636449 		.ascii	"lcdInit\000"
 3873      6E697400 
 3874 0104 01       		.byte	0x1
 3875 0105 4C       		.byte	0x4c
 3876 0106 01       		.byte	0x1
 3877 0107 00000000 		.4byte	.LFB2
 3878 010b FC000000 		.4byte	.LFE2
 3879 010f 00000000 		.4byte	.LLST0
 3880 0113 05       		.uleb128 0x5
 3881 0114 3F010000 		.4byte	0x13f
 3882 0118 01       		.byte	0x1
 3883 0119 6C636443 		.ascii	"lcdClrscr\000"
 3883      6C727363 
 3883      7200
 3884 0123 01       		.byte	0x1
 3885 0124 8A       		.byte	0x8a
 3886 0125 01       		.byte	0x1
 3887 0126 FC000000 		.4byte	.LFB3
 3888 012a 6C010000 		.4byte	.LFE3
 3889 012e 2B000000 		.4byte	.LLST1
 3890 0132 06       		.uleb128 0x6
 3891 0133 6900     		.ascii	"i\000"
 3892 0135 01       		.byte	0x1
 3893 0136 8B       		.byte	0x8b
 3894 0137 84000000 		.4byte	0x84
 3895 013b 02       		.byte	0x2
 3896 013c 91       		.byte	0x91
 3897 013d 74       		.sleb128 -12
 3898 013e 00       		.byte	0x0
 3899 013f 04       		.uleb128 0x4
ARM GAS  /cygdrive/c/Users/embedded/AppData/Local/Temp/cc2R7c4N.s 			page 79


 3900 0140 01       		.byte	0x1
 3901 0141 6C63644F 		.ascii	"lcdOff\000"
 3901      666600
 3902 0148 01       		.byte	0x1
 3903 0149 A6       		.byte	0xa6
 3904 014a 01       		.byte	0x1
 3905 014b 6C010000 		.4byte	.LFB4
 3906 014f 8E010000 		.4byte	.LFE4
 3907 0153 62000000 		.4byte	.LLST2
 3908 0157 05       		.uleb128 0x5
 3909 0158 93010000 		.4byte	0x193
 3910 015c 01       		.byte	0x1
 3911 015d 6C636443 		.ascii	"lcdColor\000"
 3911      6F6C6F72 
 3911      00
 3912 0166 01       		.byte	0x1
 3913 0167 BA       		.byte	0xba
 3914 0168 01       		.byte	0x1
 3915 0169 90010000 		.4byte	.LFB5
 3916 016d C4010000 		.4byte	.LFE5
 3917 0171 8D000000 		.4byte	.LLST3
 3918 0175 07       		.uleb128 0x7
 3919 0176 626B6700 		.ascii	"bkg\000"
 3920 017a 01       		.byte	0x1
 3921 017b B9       		.byte	0xb9
 3922 017c 52000000 		.4byte	0x52
 3923 0180 02       		.byte	0x2
 3924 0181 91       		.byte	0x91
 3925 0182 74       		.sleb128 -12
 3926 0183 07       		.uleb128 0x7
 3927 0184 74657874 		.ascii	"text\000"
 3927      00
 3928 0189 01       		.byte	0x1
 3929 018a B9       		.byte	0xb9
 3930 018b 52000000 		.4byte	0x52
 3931 018f 02       		.byte	0x2
 3932 0190 91       		.byte	0x91
 3933 0191 70       		.sleb128 -16
 3934 0192 00       		.byte	0x0
 3935 0193 05       		.uleb128 0x5
 3936 0194 C4010000 		.4byte	0x1c4
 3937 0198 01       		.byte	0x1
 3938 0199 6C636443 		.ascii	"lcdContrast\000"
 3938      6F6E7472 
 3938      61737400 
 3939 01a5 01       		.byte	0x1
 3940 01a6 C7       		.byte	0xc7
 3941 01a7 01       		.byte	0x1
 3942 01a8 C4010000 		.4byte	.LFB6
 3943 01ac F6010000 		.4byte	.LFE6
 3944 01b0 C4000000 		.4byte	.LLST4
 3945 01b4 07       		.uleb128 0x7
 3946 01b5 636F6E74 		.ascii	"cont\000"
 3946      00
 3947 01ba 01       		.byte	0x1
 3948 01bb C6       		.byte	0xc6
 3949 01bc 52000000 		.4byte	0x52
ARM GAS  /cygdrive/c/Users/embedded/AppData/Local/Temp/cc2R7c4N.s 			page 80


 3950 01c0 02       		.byte	0x2
 3951 01c1 91       		.byte	0x91
 3952 01c2 74       		.sleb128 -12
 3953 01c3 00       		.byte	0x0
 3954 01c4 05       		.uleb128 0x5
 3955 01c5 42020000 		.4byte	0x242
 3956 01c9 01       		.byte	0x1
 3957 01ca 6C636452 		.ascii	"lcdRect\000"
 3957      65637400 
 3958 01d2 01       		.byte	0x1
 3959 01d3 DB       		.byte	0xdb
 3960 01d4 01       		.byte	0x1
 3961 01d5 F8010000 		.4byte	.LFB7
 3962 01d9 CC020000 		.4byte	.LFE7
 3963 01dd FB000000 		.4byte	.LLST5
 3964 01e1 07       		.uleb128 0x7
 3965 01e2 7800     		.ascii	"x\000"
 3966 01e4 01       		.byte	0x1
 3967 01e5 DA       		.byte	0xda
 3968 01e6 52000000 		.4byte	0x52
 3969 01ea 02       		.byte	0x2
 3970 01eb 91       		.byte	0x91
 3971 01ec 60       		.sleb128 -32
 3972 01ed 07       		.uleb128 0x7
 3973 01ee 7900     		.ascii	"y\000"
 3974 01f0 01       		.byte	0x1
 3975 01f1 DA       		.byte	0xda
 3976 01f2 52000000 		.4byte	0x52
 3977 01f6 02       		.byte	0x2
 3978 01f7 91       		.byte	0x91
 3979 01f8 5C       		.sleb128 -36
 3980 01f9 07       		.uleb128 0x7
 3981 01fa 784C656E 		.ascii	"xLen\000"
 3981      00
 3982 01ff 01       		.byte	0x1
 3983 0200 DA       		.byte	0xda
 3984 0201 52000000 		.4byte	0x52
 3985 0205 02       		.byte	0x2
 3986 0206 91       		.byte	0x91
 3987 0207 58       		.sleb128 -40
 3988 0208 07       		.uleb128 0x7
 3989 0209 794C656E 		.ascii	"yLen\000"
 3989      00
 3990 020e 01       		.byte	0x1
 3991 020f DA       		.byte	0xda
 3992 0210 52000000 		.4byte	0x52
 3993 0214 02       		.byte	0x2
 3994 0215 91       		.byte	0x91
 3995 0216 54       		.sleb128 -44
 3996 0217 07       		.uleb128 0x7
 3997 0218 636F6C6F 		.ascii	"color\000"
 3997      7200
 3998 021e 01       		.byte	0x1
 3999 021f DA       		.byte	0xda
 4000 0220 52000000 		.4byte	0x52
 4001 0224 02       		.byte	0x2
 4002 0225 91       		.byte	0x91
ARM GAS  /cygdrive/c/Users/embedded/AppData/Local/Temp/cc2R7c4N.s 			page 81


 4003 0226 50       		.sleb128 -48
 4004 0227 06       		.uleb128 0x6
 4005 0228 6900     		.ascii	"i\000"
 4006 022a 01       		.byte	0x1
 4007 022b DC       		.byte	0xdc
 4008 022c 84000000 		.4byte	0x84
 4009 0230 02       		.byte	0x2
 4010 0231 91       		.byte	0x91
 4011 0232 64       		.sleb128 -28
 4012 0233 06       		.uleb128 0x6
 4013 0234 6C656E00 		.ascii	"len\000"
 4014 0238 01       		.byte	0x1
 4015 0239 DD       		.byte	0xdd
 4016 023a 84000000 		.4byte	0x84
 4017 023e 02       		.byte	0x2
 4018 023f 91       		.byte	0x91
 4019 0240 68       		.sleb128 -24
 4020 0241 00       		.byte	0x0
 4021 0242 05       		.uleb128 0x5
 4022 0243 E4020000 		.4byte	0x2e4
 4023 0247 01       		.byte	0x1
 4024 0248 6C636452 		.ascii	"lcdRectBrd\000"
 4024      65637442 
 4024      726400
 4025 0253 01       		.byte	0x1
 4026 0254 F7       		.byte	0xf7
 4027 0255 01       		.byte	0x1
 4028 0256 CC020000 		.4byte	.LFB8
 4029 025a 5E040000 		.4byte	.LFE8
 4030 025e 32010000 		.4byte	.LLST6
 4031 0262 07       		.uleb128 0x7
 4032 0263 7800     		.ascii	"x\000"
 4033 0265 01       		.byte	0x1
 4034 0266 F6       		.byte	0xf6
 4035 0267 52000000 		.4byte	0x52
 4036 026b 02       		.byte	0x2
 4037 026c 91       		.byte	0x91
 4038 026d 5C       		.sleb128 -36
 4039 026e 07       		.uleb128 0x7
 4040 026f 7900     		.ascii	"y\000"
 4041 0271 01       		.byte	0x1
 4042 0272 F6       		.byte	0xf6
 4043 0273 52000000 		.4byte	0x52
 4044 0277 02       		.byte	0x2
 4045 0278 91       		.byte	0x91
 4046 0279 58       		.sleb128 -40
 4047 027a 07       		.uleb128 0x7
 4048 027b 784C656E 		.ascii	"xLen\000"
 4048      00
 4049 0280 01       		.byte	0x1
 4050 0281 F6       		.byte	0xf6
 4051 0282 52000000 		.4byte	0x52
 4052 0286 02       		.byte	0x2
 4053 0287 91       		.byte	0x91
 4054 0288 54       		.sleb128 -44
 4055 0289 07       		.uleb128 0x7
 4056 028a 794C656E 		.ascii	"yLen\000"
ARM GAS  /cygdrive/c/Users/embedded/AppData/Local/Temp/cc2R7c4N.s 			page 82


 4056      00
 4057 028f 01       		.byte	0x1
 4058 0290 F6       		.byte	0xf6
 4059 0291 52000000 		.4byte	0x52
 4060 0295 02       		.byte	0x2
 4061 0296 91       		.byte	0x91
 4062 0297 50       		.sleb128 -48
 4063 0298 07       		.uleb128 0x7
 4064 0299 636F6C6F 		.ascii	"color1\000"
 4064      723100
 4065 02a0 01       		.byte	0x1
 4066 02a1 F6       		.byte	0xf6
 4067 02a2 52000000 		.4byte	0x52
 4068 02a6 02       		.byte	0x2
 4069 02a7 91       		.byte	0x91
 4070 02a8 4C       		.sleb128 -52
 4071 02a9 07       		.uleb128 0x7
 4072 02aa 636F6C6F 		.ascii	"color2\000"
 4072      723200
 4073 02b1 01       		.byte	0x1
 4074 02b2 F6       		.byte	0xf6
 4075 02b3 52000000 		.4byte	0x52
 4076 02b7 02       		.byte	0x2
 4077 02b8 91       		.byte	0x91
 4078 02b9 48       		.sleb128 -56
 4079 02ba 07       		.uleb128 0x7
 4080 02bb 636F6C6F 		.ascii	"color3\000"
 4080      723300
 4081 02c2 01       		.byte	0x1
 4082 02c3 F6       		.byte	0xf6
 4083 02c4 52000000 		.4byte	0x52
 4084 02c8 02       		.byte	0x2
 4085 02c9 91       		.byte	0x91
 4086 02ca 44       		.sleb128 -60
 4087 02cb 06       		.uleb128 0x6
 4088 02cc 6900     		.ascii	"i\000"
 4089 02ce 01       		.byte	0x1
 4090 02cf F8       		.byte	0xf8
 4091 02d0 D6000000 		.4byte	0xd6
 4092 02d4 02       		.byte	0x2
 4093 02d5 91       		.byte	0x91
 4094 02d6 60       		.sleb128 -32
 4095 02d7 06       		.uleb128 0x6
 4096 02d8 6A00     		.ascii	"j\000"
 4097 02da 01       		.byte	0x1
 4098 02db F8       		.byte	0xf8
 4099 02dc D6000000 		.4byte	0xd6
 4100 02e0 02       		.byte	0x2
 4101 02e1 91       		.byte	0x91
 4102 02e2 64       		.sleb128 -28
 4103 02e3 00       		.byte	0x0
 4104 02e4 08       		.uleb128 0x8
 4105 02e5 A6030000 		.4byte	0x3a6
 4106 02e9 01       		.byte	0x1
 4107 02ea 6C636449 		.ascii	"lcdIcon\000"
 4107      636F6E00 
 4108 02f2 01       		.byte	0x1
ARM GAS  /cygdrive/c/Users/embedded/AppData/Local/Temp/cc2R7c4N.s 			page 83


 4109 02f3 2101     		.2byte	0x121
 4110 02f5 01       		.byte	0x1
 4111 02f6 60040000 		.4byte	.LFB9
 4112 02fa 32060000 		.4byte	.LFE9
 4113 02fe 75010000 		.4byte	.LLST7
 4114 0302 09       		.uleb128 0x9
 4115 0303 7800     		.ascii	"x\000"
 4116 0305 01       		.byte	0x1
 4117 0306 2001     		.2byte	0x120
 4118 0308 52000000 		.4byte	0x52
 4119 030c 02       		.byte	0x2
 4120 030d 91       		.byte	0x91
 4121 030e 5C       		.sleb128 -36
 4122 030f 09       		.uleb128 0x9
 4123 0310 7900     		.ascii	"y\000"
 4124 0312 01       		.byte	0x1
 4125 0313 2001     		.2byte	0x120
 4126 0315 52000000 		.4byte	0x52
 4127 0319 02       		.byte	0x2
 4128 031a 91       		.byte	0x91
 4129 031b 58       		.sleb128 -40
 4130 031c 09       		.uleb128 0x9
 4131 031d 784C656E 		.ascii	"xLen\000"
 4131      00
 4132 0322 01       		.byte	0x1
 4133 0323 2001     		.2byte	0x120
 4134 0325 52000000 		.4byte	0x52
 4135 0329 02       		.byte	0x2
 4136 032a 91       		.byte	0x91
 4137 032b 54       		.sleb128 -44
 4138 032c 09       		.uleb128 0x9
 4139 032d 794C656E 		.ascii	"yLen\000"
 4139      00
 4140 0332 01       		.byte	0x1
 4141 0333 2001     		.2byte	0x120
 4142 0335 52000000 		.4byte	0x52
 4143 0339 02       		.byte	0x2
 4144 033a 91       		.byte	0x91
 4145 033b 50       		.sleb128 -48
 4146 033c 09       		.uleb128 0x9
 4147 033d 636F6D70 		.ascii	"compressionOn\000"
 4147      72657373 
 4147      696F6E4F 
 4147      6E00
 4148 034b 01       		.byte	0x1
 4149 034c 2001     		.2byte	0x120
 4150 034e 52000000 		.4byte	0x52
 4151 0352 02       		.byte	0x2
 4152 0353 91       		.byte	0x91
 4153 0354 4C       		.sleb128 -52
 4154 0355 09       		.uleb128 0x9
 4155 0356 65736361 		.ascii	"escapeChar\000"
 4155      70654368 
 4155      617200
 4156 0361 01       		.byte	0x1
 4157 0362 2001     		.2byte	0x120
 4158 0364 52000000 		.4byte	0x52
ARM GAS  /cygdrive/c/Users/embedded/AppData/Local/Temp/cc2R7c4N.s 			page 84


 4159 0368 02       		.byte	0x2
 4160 0369 91       		.byte	0x91
 4161 036a 48       		.sleb128 -56
 4162 036b 09       		.uleb128 0x9
 4163 036c 70446174 		.ascii	"pData\000"
 4163      6100
 4164 0372 01       		.byte	0x1
 4165 0373 2001     		.2byte	0x120
 4166 0375 A6030000 		.4byte	0x3a6
 4167 0379 02       		.byte	0x2
 4168 037a 91       		.byte	0x91
 4169 037b 08       		.sleb128 8
 4170 037c 0A       		.uleb128 0xa
 4171 037d 6900     		.ascii	"i\000"
 4172 037f 01       		.byte	0x1
 4173 0380 2201     		.2byte	0x122
 4174 0382 84000000 		.4byte	0x84
 4175 0386 02       		.byte	0x2
 4176 0387 91       		.byte	0x91
 4177 0388 60       		.sleb128 -32
 4178 0389 0A       		.uleb128 0xa
 4179 038a 6A00     		.ascii	"j\000"
 4180 038c 01       		.byte	0x1
 4181 038d 2201     		.2byte	0x122
 4182 038f 84000000 		.4byte	0x84
 4183 0393 02       		.byte	0x2
 4184 0394 91       		.byte	0x91
 4185 0395 64       		.sleb128 -28
 4186 0396 0A       		.uleb128 0xa
 4187 0397 6C656E00 		.ascii	"len\000"
 4188 039b 01       		.byte	0x1
 4189 039c 2301     		.2byte	0x123
 4190 039e 84000000 		.4byte	0x84
 4191 03a2 02       		.byte	0x2
 4192 03a3 91       		.byte	0x91
 4193 03a4 68       		.sleb128 -24
 4194 03a5 00       		.byte	0x0
 4195 03a6 0B       		.uleb128 0xb
 4196 03a7 04       		.byte	0x4
 4197 03a8 AC030000 		.4byte	0x3ac
 4198 03ac 0C       		.uleb128 0xc
 4199 03ad 52000000 		.4byte	0x52
 4200 03b1 08       		.uleb128 0x8
 4201 03b2 EC030000 		.4byte	0x3ec
 4202 03b6 01       		.byte	0x1
 4203 03b7 6C636447 		.ascii	"lcdGotoxy\000"
 4203      6F746F78 
 4203      7900
 4204 03c1 01       		.byte	0x1
 4205 03c2 5101     		.2byte	0x151
 4206 03c4 01       		.byte	0x1
 4207 03c5 34060000 		.4byte	.LFB10
 4208 03c9 7C060000 		.4byte	.LFE10
 4209 03cd AC010000 		.4byte	.LLST8
 4210 03d1 09       		.uleb128 0x9
 4211 03d2 7800     		.ascii	"x\000"
 4212 03d4 01       		.byte	0x1
ARM GAS  /cygdrive/c/Users/embedded/AppData/Local/Temp/cc2R7c4N.s 			page 85


 4213 03d5 5001     		.2byte	0x150
 4214 03d7 52000000 		.4byte	0x52
 4215 03db 02       		.byte	0x2
 4216 03dc 91       		.byte	0x91
 4217 03dd 74       		.sleb128 -12
 4218 03de 09       		.uleb128 0x9
 4219 03df 7900     		.ascii	"y\000"
 4220 03e1 01       		.byte	0x1
 4221 03e2 5001     		.2byte	0x150
 4222 03e4 52000000 		.4byte	0x52
 4223 03e8 02       		.byte	0x2
 4224 03e9 91       		.byte	0x91
 4225 03ea 70       		.sleb128 -16
 4226 03eb 00       		.byte	0x0
 4227 03ec 08       		.uleb128 0x8
 4228 03ed 45040000 		.4byte	0x445
 4229 03f1 01       		.byte	0x1
 4230 03f2 6C636457 		.ascii	"lcdWindow\000"
 4230      696E646F 
 4230      7700
 4231 03fc 01       		.byte	0x1
 4232 03fd 6101     		.2byte	0x161
 4233 03ff 01       		.byte	0x1
 4234 0400 7C060000 		.4byte	.LFB11
 4235 0404 D4060000 		.4byte	.LFE11
 4236 0408 E3010000 		.4byte	.LLST9
 4237 040c 09       		.uleb128 0x9
 4238 040d 787000   		.ascii	"xp\000"
 4239 0410 01       		.byte	0x1
 4240 0411 6001     		.2byte	0x160
 4241 0413 52000000 		.4byte	0x52
 4242 0417 02       		.byte	0x2
 4243 0418 91       		.byte	0x91
 4244 0419 6C       		.sleb128 -20
 4245 041a 09       		.uleb128 0x9
 4246 041b 797000   		.ascii	"yp\000"
 4247 041e 01       		.byte	0x1
 4248 041f 6001     		.2byte	0x160
 4249 0421 52000000 		.4byte	0x52
 4250 0425 02       		.byte	0x2
 4251 0426 91       		.byte	0x91
 4252 0427 68       		.sleb128 -24
 4253 0428 09       		.uleb128 0x9
 4254 0429 786500   		.ascii	"xe\000"
 4255 042c 01       		.byte	0x1
 4256 042d 6001     		.2byte	0x160
 4257 042f 52000000 		.4byte	0x52
 4258 0433 02       		.byte	0x2
 4259 0434 91       		.byte	0x91
 4260 0435 64       		.sleb128 -28
 4261 0436 09       		.uleb128 0x9
 4262 0437 796500   		.ascii	"ye\000"
 4263 043a 01       		.byte	0x1
 4264 043b 6001     		.2byte	0x160
 4265 043d 52000000 		.4byte	0x52
 4266 0441 02       		.byte	0x2
 4267 0442 91       		.byte	0x91
ARM GAS  /cygdrive/c/Users/embedded/AppData/Local/Temp/cc2R7c4N.s 			page 86


 4268 0443 60       		.sleb128 -32
 4269 0444 00       		.byte	0x0
 4270 0445 0D       		.uleb128 0xd
 4271 0446 9E040000 		.4byte	0x49e
 4272 044a 6C636457 		.ascii	"lcdWindow1\000"
 4272      696E646F 
 4272      773100
 4273 0455 01       		.byte	0x1
 4274 0456 7501     		.2byte	0x175
 4275 0458 01       		.byte	0x1
 4276 0459 D4060000 		.4byte	.LFB12
 4277 045d 54070000 		.4byte	.LFE12
 4278 0461 1A020000 		.4byte	.LLST10
 4279 0465 09       		.uleb128 0x9
 4280 0466 787000   		.ascii	"xp\000"
 4281 0469 01       		.byte	0x1
 4282 046a 7401     		.2byte	0x174
 4283 046c 52000000 		.4byte	0x52
 4284 0470 02       		.byte	0x2
 4285 0471 91       		.byte	0x91
 4286 0472 6C       		.sleb128 -20
 4287 0473 09       		.uleb128 0x9
 4288 0474 797000   		.ascii	"yp\000"
 4289 0477 01       		.byte	0x1
 4290 0478 7401     		.2byte	0x174
 4291 047a 52000000 		.4byte	0x52
 4292 047e 02       		.byte	0x2
 4293 047f 91       		.byte	0x91
 4294 0480 68       		.sleb128 -24
 4295 0481 09       		.uleb128 0x9
 4296 0482 786500   		.ascii	"xe\000"
 4297 0485 01       		.byte	0x1
 4298 0486 7401     		.2byte	0x174
 4299 0488 52000000 		.4byte	0x52
 4300 048c 02       		.byte	0x2
 4301 048d 91       		.byte	0x91
 4302 048e 64       		.sleb128 -28
 4303 048f 09       		.uleb128 0x9
 4304 0490 796500   		.ascii	"ye\000"
 4305 0493 01       		.byte	0x1
 4306 0494 7401     		.2byte	0x174
 4307 0496 52000000 		.4byte	0x52
 4308 049a 02       		.byte	0x2
 4309 049b 91       		.byte	0x91
 4310 049c 60       		.sleb128 -32
 4311 049d 00       		.byte	0x0
 4312 049e 0E       		.uleb128 0xe
 4313 049f 6C63644E 		.ascii	"lcdNewline\000"
 4313      65776C69 
 4313      6E6500
 4314 04aa 01       		.byte	0x1
 4315 04ab 8701     		.2byte	0x187
 4316 04ad 01       		.byte	0x1
 4317 04ae 54070000 		.4byte	.LFB13
 4318 04b2 8C070000 		.4byte	.LFE13
 4319 04b6 51020000 		.4byte	.LLST11
 4320 04ba 08       		.uleb128 0x8
ARM GAS  /cygdrive/c/Users/embedded/AppData/Local/Temp/cc2R7c4N.s 			page 87


 4321 04bb 39050000 		.4byte	0x539
 4322 04bf 01       		.byte	0x1
 4323 04c0 6C636444 		.ascii	"lcdData\000"
 4323      61746100 
 4324 04c8 01       		.byte	0x1
 4325 04c9 9701     		.2byte	0x197
 4326 04cb 01       		.byte	0x1
 4327 04cc 8C070000 		.4byte	.LFB14
 4328 04d0 DC080000 		.4byte	.LFE14
 4329 04d4 7B020000 		.4byte	.LLST12
 4330 04d8 09       		.uleb128 0x9
 4331 04d9 64617461 		.ascii	"data\000"
 4331      00
 4332 04de 01       		.byte	0x1
 4333 04df 9601     		.2byte	0x196
 4334 04e1 52000000 		.4byte	0x52
 4335 04e5 02       		.byte	0x2
 4336 04e6 91       		.byte	0x91
 4337 04e7 6C       		.sleb128 -20
 4338 04e8 0F       		.uleb128 0xf
 4339 04e9 AC070000 		.4byte	.LBB2
 4340 04ed A8080000 		.4byte	.LBE2
 4341 04f1 0A       		.uleb128 0xa
 4342 04f2 6D61704F 		.ascii	"mapOffset\000"
 4342      66667365 
 4342      7400
 4343 04fc 01       		.byte	0x1
 4344 04fd 9D01     		.2byte	0x19d
 4345 04ff 84000000 		.4byte	0x84
 4346 0503 02       		.byte	0x2
 4347 0504 91       		.byte	0x91
 4348 0505 70       		.sleb128 -16
 4349 0506 0A       		.uleb128 0xa
 4350 0507 6900     		.ascii	"i\000"
 4351 0509 01       		.byte	0x1
 4352 050a 9E01     		.2byte	0x19e
 4353 050c 52000000 		.4byte	0x52
 4354 0510 02       		.byte	0x2
 4355 0511 91       		.byte	0x91
 4356 0512 75       		.sleb128 -11
 4357 0513 0A       		.uleb128 0xa
 4358 0514 6A00     		.ascii	"j\000"
 4359 0516 01       		.byte	0x1
 4360 0517 9E01     		.2byte	0x19e
 4361 0519 52000000 		.4byte	0x52
 4362 051d 02       		.byte	0x2
 4363 051e 91       		.byte	0x91
 4364 051f 76       		.sleb128 -10
 4365 0520 0A       		.uleb128 0xa
 4366 0521 62797465 		.ascii	"byteToShift\000"
 4366      546F5368 
 4366      69667400 
 4367 052d 01       		.byte	0x1
 4368 052e 9E01     		.2byte	0x19e
 4369 0530 52000000 		.4byte	0x52
 4370 0534 02       		.byte	0x2
 4371 0535 91       		.byte	0x91
ARM GAS  /cygdrive/c/Users/embedded/AppData/Local/Temp/cc2R7c4N.s 			page 88


 4372 0536 77       		.sleb128 -9
 4373 0537 00       		.byte	0x0
 4374 0538 00       		.byte	0x0
 4375 0539 08       		.uleb128 0x8
 4376 053a 6B050000 		.4byte	0x56b
 4377 053e 01       		.byte	0x1
 4378 053f 6C636450 		.ascii	"lcdPutchar\000"
 4378      75746368 
 4378      617200
 4379 054a 01       		.byte	0x1
 4380 054b C801     		.2byte	0x1c8
 4381 054d 01       		.byte	0x1
 4382 054e DC080000 		.4byte	.LFB15
 4383 0552 50090000 		.4byte	.LFE15
 4384 0556 B2020000 		.4byte	.LLST13
 4385 055a 09       		.uleb128 0x9
 4386 055b 64617461 		.ascii	"data\000"
 4386      00
 4387 0560 01       		.byte	0x1
 4388 0561 C701     		.2byte	0x1c7
 4389 0563 52000000 		.4byte	0x52
 4390 0567 02       		.byte	0x2
 4391 0568 91       		.byte	0x91
 4392 0569 74       		.sleb128 -12
 4393 056a 00       		.byte	0x0
 4394 056b 08       		.uleb128 0x8
 4395 056c 97050000 		.4byte	0x597
 4396 0570 01       		.byte	0x1
 4397 0571 6C636450 		.ascii	"lcdPuts\000"
 4397      75747300 
 4398 0579 01       		.byte	0x1
 4399 057a E301     		.2byte	0x1e3
 4400 057c 01       		.byte	0x1
 4401 057d 50090000 		.4byte	.LFB16
 4402 0581 88090000 		.4byte	.LFE16
 4403 0585 E9020000 		.4byte	.LLST14
 4404 0589 09       		.uleb128 0x9
 4405 058a 7300     		.ascii	"s\000"
 4406 058c 01       		.byte	0x1
 4407 058d E201     		.2byte	0x1e2
 4408 058f 97050000 		.4byte	0x597
 4409 0593 02       		.byte	0x2
 4410 0594 91       		.byte	0x91
 4411 0595 74       		.sleb128 -12
 4412 0596 00       		.byte	0x0
 4413 0597 0B       		.uleb128 0xb
 4414 0598 04       		.byte	0x4
 4415 0599 9D050000 		.4byte	0x59d
 4416 059d 03       		.uleb128 0x3
 4417 059e 63686172 		.ascii	"char\000"
 4417      00
 4418 05a3 01       		.byte	0x1
 4419 05a4 08       		.byte	0x8
 4420 05a5 08       		.uleb128 0x8
 4421 05a6 D5050000 		.4byte	0x5d5
 4422 05aa 01       		.byte	0x1
 4423 05ab 6C636457 		.ascii	"lcdWrcmd\000"
ARM GAS  /cygdrive/c/Users/embedded/AppData/Local/Temp/cc2R7c4N.s 			page 89


 4423      72636D64 
 4423      00
 4424 05b4 01       		.byte	0x1
 4425 05b5 F001     		.2byte	0x1f0
 4426 05b7 01       		.byte	0x1
 4427 05b8 88090000 		.4byte	.LFB17
 4428 05bc AA090000 		.4byte	.LFE17
 4429 05c0 20030000 		.4byte	.LLST15
 4430 05c4 09       		.uleb128 0x9
 4431 05c5 64617461 		.ascii	"data\000"
 4431      00
 4432 05ca 01       		.byte	0x1
 4433 05cb EF01     		.2byte	0x1ef
 4434 05cd 52000000 		.4byte	0x52
 4435 05d1 02       		.byte	0x2
 4436 05d2 91       		.byte	0x91
 4437 05d3 74       		.sleb128 -12
 4438 05d4 00       		.byte	0x0
 4439 05d5 08       		.uleb128 0x8
 4440 05d6 06060000 		.4byte	0x606
 4441 05da 01       		.byte	0x1
 4442 05db 6C636457 		.ascii	"lcdWrdata\000"
 4442      72646174 
 4442      6100
 4443 05e5 01       		.byte	0x1
 4444 05e6 FC01     		.2byte	0x1fc
 4445 05e8 01       		.byte	0x1
 4446 05e9 AC090000 		.4byte	.LFB18
 4447 05ed CE090000 		.4byte	.LFE18
 4448 05f1 57030000 		.4byte	.LLST16
 4449 05f5 09       		.uleb128 0x9
 4450 05f6 64617461 		.ascii	"data\000"
 4450      00
 4451 05fb 01       		.byte	0x1
 4452 05fc FB01     		.2byte	0x1fb
 4453 05fe 52000000 		.4byte	0x52
 4454 0602 02       		.byte	0x2
 4455 0603 91       		.byte	0x91
 4456 0604 74       		.sleb128 -12
 4457 0605 00       		.byte	0x0
 4458 0606 06       		.uleb128 0x6
 4459 0607 6C63645F 		.ascii	"lcd_x\000"
 4459      7800
 4460 060d 01       		.byte	0x1
 4461 060e 36       		.byte	0x36
 4462 060f 52000000 		.4byte	0x52
 4463 0613 05       		.byte	0x5
 4464 0614 03       		.byte	0x3
 4465 0615 00000000 		.4byte	lcd_x
 4466 0619 06       		.uleb128 0x6
 4467 061a 6C63645F 		.ascii	"lcd_y\000"
 4467      7900
 4468 0620 01       		.byte	0x1
 4469 0621 37       		.byte	0x37
 4470 0622 52000000 		.4byte	0x52
 4471 0626 05       		.byte	0x5
 4472 0627 03       		.byte	0x3
ARM GAS  /cygdrive/c/Users/embedded/AppData/Local/Temp/cc2R7c4N.s 			page 90


 4473 0628 01000000 		.4byte	lcd_y
 4474 062c 06       		.uleb128 0x6
 4475 062d 626B6743 		.ascii	"bkgColor\000"
 4475      6F6C6F72 
 4475      00
 4476 0636 01       		.byte	0x1
 4477 0637 38       		.byte	0x38
 4478 0638 52000000 		.4byte	0x52
 4479 063c 05       		.byte	0x5
 4480 063d 03       		.byte	0x3
 4481 063e 02000000 		.4byte	bkgColor
 4482 0642 06       		.uleb128 0x6
 4483 0643 74657874 		.ascii	"textColor\000"
 4483      436F6C6F 
 4483      7200
 4484 064d 01       		.byte	0x1
 4485 064e 39       		.byte	0x39
 4486 064f 52000000 		.4byte	0x52
 4487 0653 05       		.byte	0x5
 4488 0654 03       		.byte	0x3
 4489 0655 03000000 		.4byte	textColor
 4490 0659 06       		.uleb128 0x6
 4491 065a 73657463 		.ascii	"setcolmark\000"
 4491      6F6C6D61 
 4491      726B00
 4492 0665 01       		.byte	0x1
 4493 0666 3A       		.byte	0x3a
 4494 0667 52000000 		.4byte	0x52
 4495 066b 05       		.byte	0x5
 4496 066c 03       		.byte	0x3
 4497 066d 04000000 		.4byte	setcolmark
 4498 0671 10       		.uleb128 0x10
 4499 0672 82060000 		.4byte	0x682
 4500 0676 52000000 		.4byte	0x52
 4501 067a 11       		.uleb128 0x11
 4502 067b 82060000 		.4byte	0x682
 4503 067f 5B05     		.2byte	0x55b
 4504 0681 00       		.byte	0x0
 4505 0682 03       		.uleb128 0x3
 4506 0683 6C6F6E67 		.ascii	"long unsigned int\000"
 4506      20756E73 
 4506      69676E65 
 4506      6420696E 
 4506      7400
 4507 0695 04       		.byte	0x4
 4508 0696 07       		.byte	0x7
 4509 0697 12       		.uleb128 0x12
 4510 0698 63686172 		.ascii	"charMap\000"
 4510      4D617000 
 4511 06a0 03       		.byte	0x3
 4512 06a1 01       		.byte	0x1
 4513 06a2 AD060000 		.4byte	0x6ad
 4514 06a6 01       		.byte	0x1
 4515 06a7 05       		.byte	0x5
 4516 06a8 03       		.byte	0x3
 4517 06a9 00000000 		.4byte	charMap
 4518 06ad 0C       		.uleb128 0xc
ARM GAS  /cygdrive/c/Users/embedded/AppData/Local/Temp/cc2R7c4N.s 			page 91


 4519 06ae 71060000 		.4byte	0x671
 4520 06b2 00       		.byte	0x0
 4521              		.section	.debug_abbrev
 4522 0000 01       		.uleb128 0x1
 4523 0001 11       		.uleb128 0x11
 4524 0002 01       		.byte	0x1
 4525 0003 10       		.uleb128 0x10
 4526 0004 06       		.uleb128 0x6
 4527 0005 12       		.uleb128 0x12
 4528 0006 01       		.uleb128 0x1
 4529 0007 11       		.uleb128 0x11
 4530 0008 01       		.uleb128 0x1
 4531 0009 25       		.uleb128 0x25
 4532 000a 08       		.uleb128 0x8
 4533 000b 13       		.uleb128 0x13
 4534 000c 0B       		.uleb128 0xb
 4535 000d 03       		.uleb128 0x3
 4536 000e 08       		.uleb128 0x8
 4537 000f 1B       		.uleb128 0x1b
 4538 0010 08       		.uleb128 0x8
 4539 0011 00       		.byte	0x0
 4540 0012 00       		.byte	0x0
 4541 0013 02       		.uleb128 0x2
 4542 0014 16       		.uleb128 0x16
 4543 0015 00       		.byte	0x0
 4544 0016 03       		.uleb128 0x3
 4545 0017 08       		.uleb128 0x8
 4546 0018 3A       		.uleb128 0x3a
 4547 0019 0B       		.uleb128 0xb
 4548 001a 3B       		.uleb128 0x3b
 4549 001b 0B       		.uleb128 0xb
 4550 001c 49       		.uleb128 0x49
 4551 001d 13       		.uleb128 0x13
 4552 001e 00       		.byte	0x0
 4553 001f 00       		.byte	0x0
 4554 0020 03       		.uleb128 0x3
 4555 0021 24       		.uleb128 0x24
 4556 0022 00       		.byte	0x0
 4557 0023 03       		.uleb128 0x3
 4558 0024 08       		.uleb128 0x8
 4559 0025 0B       		.uleb128 0xb
 4560 0026 0B       		.uleb128 0xb
 4561 0027 3E       		.uleb128 0x3e
 4562 0028 0B       		.uleb128 0xb
 4563 0029 00       		.byte	0x0
 4564 002a 00       		.byte	0x0
 4565 002b 04       		.uleb128 0x4
 4566 002c 2E       		.uleb128 0x2e
 4567 002d 00       		.byte	0x0
 4568 002e 3F       		.uleb128 0x3f
 4569 002f 0C       		.uleb128 0xc
 4570 0030 03       		.uleb128 0x3
 4571 0031 08       		.uleb128 0x8
 4572 0032 3A       		.uleb128 0x3a
 4573 0033 0B       		.uleb128 0xb
 4574 0034 3B       		.uleb128 0x3b
 4575 0035 0B       		.uleb128 0xb
ARM GAS  /cygdrive/c/Users/embedded/AppData/Local/Temp/cc2R7c4N.s 			page 92


 4576 0036 27       		.uleb128 0x27
 4577 0037 0C       		.uleb128 0xc
 4578 0038 11       		.uleb128 0x11
 4579 0039 01       		.uleb128 0x1
 4580 003a 12       		.uleb128 0x12
 4581 003b 01       		.uleb128 0x1
 4582 003c 40       		.uleb128 0x40
 4583 003d 06       		.uleb128 0x6
 4584 003e 00       		.byte	0x0
 4585 003f 00       		.byte	0x0
 4586 0040 05       		.uleb128 0x5
 4587 0041 2E       		.uleb128 0x2e
 4588 0042 01       		.byte	0x1
 4589 0043 01       		.uleb128 0x1
 4590 0044 13       		.uleb128 0x13
 4591 0045 3F       		.uleb128 0x3f
 4592 0046 0C       		.uleb128 0xc
 4593 0047 03       		.uleb128 0x3
 4594 0048 08       		.uleb128 0x8
 4595 0049 3A       		.uleb128 0x3a
 4596 004a 0B       		.uleb128 0xb
 4597 004b 3B       		.uleb128 0x3b
 4598 004c 0B       		.uleb128 0xb
 4599 004d 27       		.uleb128 0x27
 4600 004e 0C       		.uleb128 0xc
 4601 004f 11       		.uleb128 0x11
 4602 0050 01       		.uleb128 0x1
 4603 0051 12       		.uleb128 0x12
 4604 0052 01       		.uleb128 0x1
 4605 0053 40       		.uleb128 0x40
 4606 0054 06       		.uleb128 0x6
 4607 0055 00       		.byte	0x0
 4608 0056 00       		.byte	0x0
 4609 0057 06       		.uleb128 0x6
 4610 0058 34       		.uleb128 0x34
 4611 0059 00       		.byte	0x0
 4612 005a 03       		.uleb128 0x3
 4613 005b 08       		.uleb128 0x8
 4614 005c 3A       		.uleb128 0x3a
 4615 005d 0B       		.uleb128 0xb
 4616 005e 3B       		.uleb128 0x3b
 4617 005f 0B       		.uleb128 0xb
 4618 0060 49       		.uleb128 0x49
 4619 0061 13       		.uleb128 0x13
 4620 0062 02       		.uleb128 0x2
 4621 0063 0A       		.uleb128 0xa
 4622 0064 00       		.byte	0x0
 4623 0065 00       		.byte	0x0
 4624 0066 07       		.uleb128 0x7
 4625 0067 05       		.uleb128 0x5
 4626 0068 00       		.byte	0x0
 4627 0069 03       		.uleb128 0x3
 4628 006a 08       		.uleb128 0x8
 4629 006b 3A       		.uleb128 0x3a
 4630 006c 0B       		.uleb128 0xb
 4631 006d 3B       		.uleb128 0x3b
 4632 006e 0B       		.uleb128 0xb
ARM GAS  /cygdrive/c/Users/embedded/AppData/Local/Temp/cc2R7c4N.s 			page 93


 4633 006f 49       		.uleb128 0x49
 4634 0070 13       		.uleb128 0x13
 4635 0071 02       		.uleb128 0x2
 4636 0072 0A       		.uleb128 0xa
 4637 0073 00       		.byte	0x0
 4638 0074 00       		.byte	0x0
 4639 0075 08       		.uleb128 0x8
 4640 0076 2E       		.uleb128 0x2e
 4641 0077 01       		.byte	0x1
 4642 0078 01       		.uleb128 0x1
 4643 0079 13       		.uleb128 0x13
 4644 007a 3F       		.uleb128 0x3f
 4645 007b 0C       		.uleb128 0xc
 4646 007c 03       		.uleb128 0x3
 4647 007d 08       		.uleb128 0x8
 4648 007e 3A       		.uleb128 0x3a
 4649 007f 0B       		.uleb128 0xb
 4650 0080 3B       		.uleb128 0x3b
 4651 0081 05       		.uleb128 0x5
 4652 0082 27       		.uleb128 0x27
 4653 0083 0C       		.uleb128 0xc
 4654 0084 11       		.uleb128 0x11
 4655 0085 01       		.uleb128 0x1
 4656 0086 12       		.uleb128 0x12
 4657 0087 01       		.uleb128 0x1
 4658 0088 40       		.uleb128 0x40
 4659 0089 06       		.uleb128 0x6
 4660 008a 00       		.byte	0x0
 4661 008b 00       		.byte	0x0
 4662 008c 09       		.uleb128 0x9
 4663 008d 05       		.uleb128 0x5
 4664 008e 00       		.byte	0x0
 4665 008f 03       		.uleb128 0x3
 4666 0090 08       		.uleb128 0x8
 4667 0091 3A       		.uleb128 0x3a
 4668 0092 0B       		.uleb128 0xb
 4669 0093 3B       		.uleb128 0x3b
 4670 0094 05       		.uleb128 0x5
 4671 0095 49       		.uleb128 0x49
 4672 0096 13       		.uleb128 0x13
 4673 0097 02       		.uleb128 0x2
 4674 0098 0A       		.uleb128 0xa
 4675 0099 00       		.byte	0x0
 4676 009a 00       		.byte	0x0
 4677 009b 0A       		.uleb128 0xa
 4678 009c 34       		.uleb128 0x34
 4679 009d 00       		.byte	0x0
 4680 009e 03       		.uleb128 0x3
 4681 009f 08       		.uleb128 0x8
 4682 00a0 3A       		.uleb128 0x3a
 4683 00a1 0B       		.uleb128 0xb
 4684 00a2 3B       		.uleb128 0x3b
 4685 00a3 05       		.uleb128 0x5
 4686 00a4 49       		.uleb128 0x49
 4687 00a5 13       		.uleb128 0x13
 4688 00a6 02       		.uleb128 0x2
 4689 00a7 0A       		.uleb128 0xa
ARM GAS  /cygdrive/c/Users/embedded/AppData/Local/Temp/cc2R7c4N.s 			page 94


 4690 00a8 00       		.byte	0x0
 4691 00a9 00       		.byte	0x0
 4692 00aa 0B       		.uleb128 0xb
 4693 00ab 0F       		.uleb128 0xf
 4694 00ac 00       		.byte	0x0
 4695 00ad 0B       		.uleb128 0xb
 4696 00ae 0B       		.uleb128 0xb
 4697 00af 49       		.uleb128 0x49
 4698 00b0 13       		.uleb128 0x13
 4699 00b1 00       		.byte	0x0
 4700 00b2 00       		.byte	0x0
 4701 00b3 0C       		.uleb128 0xc
 4702 00b4 26       		.uleb128 0x26
 4703 00b5 00       		.byte	0x0
 4704 00b6 49       		.uleb128 0x49
 4705 00b7 13       		.uleb128 0x13
 4706 00b8 00       		.byte	0x0
 4707 00b9 00       		.byte	0x0
 4708 00ba 0D       		.uleb128 0xd
 4709 00bb 2E       		.uleb128 0x2e
 4710 00bc 01       		.byte	0x1
 4711 00bd 01       		.uleb128 0x1
 4712 00be 13       		.uleb128 0x13
 4713 00bf 03       		.uleb128 0x3
 4714 00c0 08       		.uleb128 0x8
 4715 00c1 3A       		.uleb128 0x3a
 4716 00c2 0B       		.uleb128 0xb
 4717 00c3 3B       		.uleb128 0x3b
 4718 00c4 05       		.uleb128 0x5
 4719 00c5 27       		.uleb128 0x27
 4720 00c6 0C       		.uleb128 0xc
 4721 00c7 11       		.uleb128 0x11
 4722 00c8 01       		.uleb128 0x1
 4723 00c9 12       		.uleb128 0x12
 4724 00ca 01       		.uleb128 0x1
 4725 00cb 40       		.uleb128 0x40
 4726 00cc 06       		.uleb128 0x6
 4727 00cd 00       		.byte	0x0
 4728 00ce 00       		.byte	0x0
 4729 00cf 0E       		.uleb128 0xe
 4730 00d0 2E       		.uleb128 0x2e
 4731 00d1 00       		.byte	0x0
 4732 00d2 03       		.uleb128 0x3
 4733 00d3 08       		.uleb128 0x8
 4734 00d4 3A       		.uleb128 0x3a
 4735 00d5 0B       		.uleb128 0xb
 4736 00d6 3B       		.uleb128 0x3b
 4737 00d7 05       		.uleb128 0x5
 4738 00d8 27       		.uleb128 0x27
 4739 00d9 0C       		.uleb128 0xc
 4740 00da 11       		.uleb128 0x11
 4741 00db 01       		.uleb128 0x1
 4742 00dc 12       		.uleb128 0x12
 4743 00dd 01       		.uleb128 0x1
 4744 00de 40       		.uleb128 0x40
 4745 00df 06       		.uleb128 0x6
 4746 00e0 00       		.byte	0x0
ARM GAS  /cygdrive/c/Users/embedded/AppData/Local/Temp/cc2R7c4N.s 			page 95


 4747 00e1 00       		.byte	0x0
 4748 00e2 0F       		.uleb128 0xf
 4749 00e3 0B       		.uleb128 0xb
 4750 00e4 01       		.byte	0x1
 4751 00e5 11       		.uleb128 0x11
 4752 00e6 01       		.uleb128 0x1
 4753 00e7 12       		.uleb128 0x12
 4754 00e8 01       		.uleb128 0x1
 4755 00e9 00       		.byte	0x0
 4756 00ea 00       		.byte	0x0
 4757 00eb 10       		.uleb128 0x10
 4758 00ec 01       		.uleb128 0x1
 4759 00ed 01       		.byte	0x1
 4760 00ee 01       		.uleb128 0x1
 4761 00ef 13       		.uleb128 0x13
 4762 00f0 49       		.uleb128 0x49
 4763 00f1 13       		.uleb128 0x13
 4764 00f2 00       		.byte	0x0
 4765 00f3 00       		.byte	0x0
 4766 00f4 11       		.uleb128 0x11
 4767 00f5 21       		.uleb128 0x21
 4768 00f6 00       		.byte	0x0
 4769 00f7 49       		.uleb128 0x49
 4770 00f8 13       		.uleb128 0x13
 4771 00f9 2F       		.uleb128 0x2f
 4772 00fa 05       		.uleb128 0x5
 4773 00fb 00       		.byte	0x0
 4774 00fc 00       		.byte	0x0
 4775 00fd 12       		.uleb128 0x12
 4776 00fe 34       		.uleb128 0x34
 4777 00ff 00       		.byte	0x0
 4778 0100 03       		.uleb128 0x3
 4779 0101 08       		.uleb128 0x8
 4780 0102 3A       		.uleb128 0x3a
 4781 0103 0B       		.uleb128 0xb
 4782 0104 3B       		.uleb128 0x3b
 4783 0105 0B       		.uleb128 0xb
 4784 0106 49       		.uleb128 0x49
 4785 0107 13       		.uleb128 0x13
 4786 0108 3F       		.uleb128 0x3f
 4787 0109 0C       		.uleb128 0xc
 4788 010a 02       		.uleb128 0x2
 4789 010b 0A       		.uleb128 0xa
 4790 010c 00       		.byte	0x0
 4791 010d 00       		.byte	0x0
 4792 010e 00       		.byte	0x0
 4793              		.section	.debug_pubnames,"",%progbits
 4794 0000 E1000000 		.4byte	0xe1
 4795 0004 0200     		.2byte	0x2
 4796 0006 00000000 		.4byte	.Ldebug_info0
 4797 000a B3060000 		.4byte	0x6b3
 4798 000e FA000000 		.4byte	0xfa
 4799 0012 6C636449 		.ascii	"lcdInit\000"
 4799      6E697400 
 4800 001a 13010000 		.4byte	0x113
 4801 001e 6C636443 		.ascii	"lcdClrscr\000"
 4801      6C727363 
ARM GAS  /cygdrive/c/Users/embedded/AppData/Local/Temp/cc2R7c4N.s 			page 96


 4801      7200
 4802 0028 3F010000 		.4byte	0x13f
 4803 002c 6C63644F 		.ascii	"lcdOff\000"
 4803      666600
 4804 0033 57010000 		.4byte	0x157
 4805 0037 6C636443 		.ascii	"lcdColor\000"
 4805      6F6C6F72 
 4805      00
 4806 0040 93010000 		.4byte	0x193
 4807 0044 6C636443 		.ascii	"lcdContrast\000"
 4807      6F6E7472 
 4807      61737400 
 4808 0050 C4010000 		.4byte	0x1c4
 4809 0054 6C636452 		.ascii	"lcdRect\000"
 4809      65637400 
 4810 005c 42020000 		.4byte	0x242
 4811 0060 6C636452 		.ascii	"lcdRectBrd\000"
 4811      65637442 
 4811      726400
 4812 006b E4020000 		.4byte	0x2e4
 4813 006f 6C636449 		.ascii	"lcdIcon\000"
 4813      636F6E00 
 4814 0077 B1030000 		.4byte	0x3b1
 4815 007b 6C636447 		.ascii	"lcdGotoxy\000"
 4815      6F746F78 
 4815      7900
 4816 0085 EC030000 		.4byte	0x3ec
 4817 0089 6C636457 		.ascii	"lcdWindow\000"
 4817      696E646F 
 4817      7700
 4818 0093 BA040000 		.4byte	0x4ba
 4819 0097 6C636444 		.ascii	"lcdData\000"
 4819      61746100 
 4820 009f 39050000 		.4byte	0x539
 4821 00a3 6C636450 		.ascii	"lcdPutchar\000"
 4821      75746368 
 4821      617200
 4822 00ae 6B050000 		.4byte	0x56b
 4823 00b2 6C636450 		.ascii	"lcdPuts\000"
 4823      75747300 
 4824 00ba A5050000 		.4byte	0x5a5
 4825 00be 6C636457 		.ascii	"lcdWrcmd\000"
 4825      72636D64 
 4825      00
 4826 00c7 D5050000 		.4byte	0x5d5
 4827 00cb 6C636457 		.ascii	"lcdWrdata\000"
 4827      72646174 
 4827      6100
 4828 00d5 97060000 		.4byte	0x697
 4829 00d9 63686172 		.ascii	"charMap\000"
 4829      4D617000 
 4830 00e1 00000000 		.4byte	0x0
 4831              		.section	.debug_aranges,"",%progbits
 4832 0000 1C000000 		.4byte	0x1c
 4833 0004 0200     		.2byte	0x2
 4834 0006 00000000 		.4byte	.Ldebug_info0
 4835 000a 04       		.byte	0x4
ARM GAS  /cygdrive/c/Users/embedded/AppData/Local/Temp/cc2R7c4N.s 			page 97


 4836 000b 00       		.byte	0x0
 4837 000c 0000     		.2byte	0x0
 4838 000e 0000     		.2byte	0x0
 4839 0010 00000000 		.4byte	.Ltext0
 4840 0014 CE090000 		.4byte	.Letext0-.Ltext0
 4841 0018 00000000 		.4byte	0x0
 4842 001c 00000000 		.4byte	0x0
 4843              		.ident	"GCC: (GNU) 4.1.1"
ARM GAS  /cygdrive/c/Users/embedded/AppData/Local/Temp/cc2R7c4N.s 			page 98


DEFINED SYMBOLS
                            *ABS*:00000000 lcd.c
/cygdrive/c/Users/embedded/AppData/Local/Temp/cc2R7c4N.s:1      .text:00000000 $t
/cygdrive/c/Users/embedded/AppData/Local/Temp/cc2R7c4N.s:15     .rodata:00000000 charMap
/cygdrive/c/Users/embedded/AppData/Local/Temp/cc2R7c4N.s:1394   .text:00000000 lcdInit
/cygdrive/c/Users/embedded/AppData/Local/Temp/cc2R7c4N.s:2928   .text:00000988 lcdWrcmd
/cygdrive/c/Users/embedded/AppData/Local/Temp/cc2R7c4N.s:2960   .text:000009ac lcdWrdata
/cygdrive/c/Users/embedded/AppData/Local/Temp/cc2R7c4N.s:1688   .text:000001c4 lcdContrast
/cygdrive/c/Users/embedded/AppData/Local/Temp/cc2R7c4N.s:1537   .text:000000fc lcdClrscr
/cygdrive/c/Users/embedded/AppData/Local/Temp/cc2R7c4N.s:1528   .text:000000f4 $d
/cygdrive/c/Users/embedded/AppData/Local/Temp/cc2R7c4N.s:2992   .bss:00000002 bkgColor
/cygdrive/c/Users/embedded/AppData/Local/Temp/cc2R7c4N.s:2994   .bss:00000003 textColor
/cygdrive/c/Users/embedded/AppData/Local/Temp/cc2R7c4N.s:1534   .text:000000fc $t
/cygdrive/c/Users/embedded/AppData/Local/Temp/cc2R7c4N.s:2470   .text:000006d4 lcdWindow1
/cygdrive/c/Users/embedded/AppData/Local/Temp/cc2R7c4N.s:1602   .text:0000015c $d
/cygdrive/c/Users/embedded/AppData/Local/Temp/cc2R7c4N.s:2988   .bss:00000000 lcd_x
/cygdrive/c/Users/embedded/AppData/Local/Temp/cc2R7c4N.s:2990   .bss:00000001 lcd_y
/cygdrive/c/Users/embedded/AppData/Local/Temp/cc2R7c4N.s:1613   .text:0000016c lcdOff
/cygdrive/c/Users/embedded/AppData/Local/Temp/cc2R7c4N.s:1610   .text:0000016c $t
/cygdrive/c/Users/embedded/AppData/Local/Temp/cc2R7c4N.s:1644   .text:00000190 lcdColor
/cygdrive/c/Users/embedded/AppData/Local/Temp/cc2R7c4N.s:1679   .text:000001bc $d
/cygdrive/c/Users/embedded/AppData/Local/Temp/cc2R7c4N.s:1685   .text:000001c4 $t
/cygdrive/c/Users/embedded/AppData/Local/Temp/cc2R7c4N.s:1728   .text:000001f8 lcdRect
/cygdrive/c/Users/embedded/AppData/Local/Temp/cc2R7c4N.s:1854   .text:000002cc lcdRectBrd
/cygdrive/c/Users/embedded/AppData/Local/Temp/cc2R7c4N.s:2087   .text:00000460 lcdIcon
/cygdrive/c/Users/embedded/AppData/Local/Temp/cc2R7c4N.s:2358   .text:00000634 lcdGotoxy
/cygdrive/c/Users/embedded/AppData/Local/Temp/cc2R7c4N.s:2412   .text:0000067c lcdWindow
/cygdrive/c/Users/embedded/AppData/Local/Temp/cc2R7c4N.s:2403   .text:00000674 $d
/cygdrive/c/Users/embedded/AppData/Local/Temp/cc2R7c4N.s:2409   .text:0000067c $t
/cygdrive/c/Users/embedded/AppData/Local/Temp/cc2R7c4N.s:2548   .text:00000754 lcdNewline
/cygdrive/c/Users/embedded/AppData/Local/Temp/cc2R7c4N.s:2587   .text:00000784 $d
/cygdrive/c/Users/embedded/AppData/Local/Temp/cc2R7c4N.s:2596   .text:0000078c lcdData
/cygdrive/c/Users/embedded/AppData/Local/Temp/cc2R7c4N.s:2593   .text:0000078c $t
/cygdrive/c/Users/embedded/AppData/Local/Temp/cc2R7c4N.s:2785   .text:000008c8 $d
/cygdrive/c/Users/embedded/AppData/Local/Temp/cc2R7c4N.s:2797   .text:000008dc lcdPutchar
/cygdrive/c/Users/embedded/AppData/Local/Temp/cc2R7c4N.s:2794   .text:000008dc $t
/cygdrive/c/Users/embedded/AppData/Local/Temp/cc2R7c4N.s:2871   .text:00000944 $d
/cygdrive/c/Users/embedded/AppData/Local/Temp/cc2R7c4N.s:2996   .bss:00000004 setcolmark
/cygdrive/c/Users/embedded/AppData/Local/Temp/cc2R7c4N.s:2881   .text:00000950 lcdPuts
/cygdrive/c/Users/embedded/AppData/Local/Temp/cc2R7c4N.s:2878   .text:00000950 $t
                             .bss:00000000 $d

UNDEFINED SYMBOLS
initSpiForLcd
selectLCD
sdelay
sendToLCD
