ARM GAS  /cygdrive/c/Users/embedded/AppData/Local/Temp/ccSAFOEw.s 			page 1


   1              		.code	16
   2              		.file	"main.c"
   3              		.section	.debug_abbrev,"",%progbits
   4              	.Ldebug_abbrev0:
   5              		.section	.debug_info,"",%progbits
   6              	.Ldebug_info0:
   7              		.section	.debug_line,"",%progbits
   8              	.Ldebug_line0:
   9 0000 0F010000 		.text
   9      02003700 
   9      00000201 
   9      FB0E0D00 
   9      01010101 
  10              	.Ltext0:
  11              		.global	__udivdi3
  12              		.global	__muldi3
  13              		.align	2
  14              		.code 16
  15              		.thumb_func
  16              		.type	init_irq, %function
  17              	init_irq:
  18              	.LFB2:
  19              		.file 1 "main.c"
   1:main.c        **** /*************************************************************************************
   2:main.c        ****  * 
   3:main.c        ****  * @Authors: Kacper Bialek,
   4:main.c        ****  *           Franciszek Pawlak,
   5:main.c        ****  *           Piotr Janiszek,
   6:main.c        ****  *
   7:main.c        ****  ******************************************************************************/
   8:main.c        **** 
   9:main.c        **** #include "general.h"
  10:main.c        **** #include <lpc2xxx.h>
  11:main.c        **** #include <printf_P.h>
  12:main.c        **** #include <printf_init.h>
  13:main.c        **** #include <consol.h>
  14:main.c        **** #include <config.h>
  15:main.c        **** #include "irq/irq_handler.h"
  16:main.c        **** #include "timer.h"
  17:main.c        **** #include "VIC.h"
  18:main.c        **** #include "lcd.h"
  19:main.c        **** #include "additional.h"
  20:main.c        **** #include "i2c.h"
  21:main.c        **** #include "eeprom.h"
  22:main.c        **** #include "adc.h"
  23:main.c        **** #include "add_irq.h"
  24:main.c        **** 
  25:main.c        **** #include "Common_Def.h"
  26:main.c        **** #include <stdio.h>
  27:main.c        **** 
  28:main.c        **** 
  29:main.c        **** /*****************************************************************************
  30:main.c        ****  * Global variables
  31:main.c        ****  ****************************************************************************/
  32:main.c        **** volatile tU32 ms;
  33:main.c        **** 
  34:main.c        **** /************************************************************************
ARM GAS  /cygdrive/c/Users/embedded/AppData/Local/Temp/ccSAFOEw.s 			page 2


  35:main.c        ****  * @Description: uruchomienie obsÅ‚ugi przerwaÅ„
  36:main.c        ****  * @Parameter:
  37:main.c        ****  *    [in] period    : okres generatora przerwaÅ„
  38:main.c        ****  *    [in] duty_cycle: wypeÅ‚nienie w %
  39:main.c        ****  * @Returns: Nic
  40:main.c        ****  * @Side effects:
  41:main.c        ****  *    przeprogramowany timer #1
  42:main.c        ****  *************************************************************************/
  43:main.c        **** static void init_irq (tU32 period, tU8 duty_cycle)
  44:main.c        **** {
  20              		.loc 1 44 0
  21 0000 F0B5     		push	{r4, r5, r6, r7, lr}
  22              	.LCFI0:
  23 0002 85B0     		sub	sp, sp, #20
  24              	.LCFI1:
  25 0004 00AF     		add	r7, sp, #0
  26              	.LCFI2:
  27 0006 3B1C     		mov	r3, r7
  28 0008 1033     		add	r3, r3, #16
  29 000a 1860     		str	r0, [r3]
  30 000c 0B1C     		mov	r3, r1
  31 000e 3A1C     		mov	r2, r7
  32 0010 0C32     		add	r2, r2, #12
  33 0012 1370     		strb	r3, [r2]
  45:main.c        **** 	//Zainicjuj VIC dla przerwaÅ„ od Timera #1
  46:main.c        ****     VICIntSelect &= ~TIMER_1_IRQ;           //Przerwanie od Timera #1 przypisane do IRQ (nie do FIQ
  34              		.loc 1 46 0
  35 0014 3849     		ldr	r1, .L3
  36 0016 384B     		ldr	r3, .L3
  37 0018 1A68     		ldr	r2, [r3]
  38 001a 2023     		mov	r3, #32
  39 001c 101C     		mov	r0, r2
  40 001e 9843     		bic	r0, r0, r3
  41 0020 031C     		mov	r3, r0
  42 0022 0B60     		str	r3, [r1]
  47:main.c        ****     VICVectAddr5  = (tU32)IRQ_Test;         //adres procedury przerwania
  43              		.loc 1 47 0
  44 0024 354A     		ldr	r2, .L3+4
  45 0026 364B     		ldr	r3, .L3+8
  46 0028 1360     		str	r3, [r2]
  48:main.c        ****     VICVectCntl5  = VIC_ENABLE_SLOT | TIMER_1_IRQ_NO;
  47              		.loc 1 48 0
  48 002a 364A     		ldr	r2, .L3+12
  49 002c 2523     		mov	r3, #37
  50 002e 1360     		str	r3, [r2]
  49:main.c        ****     VICIntEnable  = TIMER_1_IRQ;            // Przypisanie i odblokowanie slotu w VIC od Timera #1
  51              		.loc 1 49 0
  52 0030 354A     		ldr	r2, .L3+16
  53 0032 2023     		mov	r3, #32
  54 0034 1360     		str	r3, [r2]
  50:main.c        **** 
  51:main.c        ****     T1TCR = TIMER_RESET;                    //Zatrzymaj i zresetuj
  55              		.loc 1 51 0
  56 0036 354A     		ldr	r2, .L3+20
  57 0038 0223     		mov	r3, #2
  58 003a 1360     		str	r3, [r2]
  52:main.c        ****     T1PR  = 0;                              //Preskaler nieuÅ¼ywany
ARM GAS  /cygdrive/c/Users/embedded/AppData/Local/Temp/ccSAFOEw.s 			page 3


  59              		.loc 1 52 0
  60 003c 344A     		ldr	r2, .L3+24
  61 003e 0023     		mov	r3, #0
  62 0040 1360     		str	r3, [r2]
  53:main.c        ****     T1MR0 = ((tU64)period)*((tU64)PERIPHERAL_CLOCK)/1000;
  63              		.loc 1 53 0
  64 0042 344A     		ldr	r2, .L3+28
  65 0044 3A60     		str	r2, [r7]
  66 0046 3B1C     		mov	r3, r7
  67 0048 1033     		add	r3, r3, #16
  68 004a 1B68     		ldr	r3, [r3]
  69 004c 0020     		mov	r0, #0
  70 004e 191C     		mov	r1, r3
  71 0050 021C     		mov	r2, r0
  72 0052 7960     		str	r1, [r7, #4]
  73 0054 BA60     		str	r2, [r7, #8]
  74 0056 7B68     		ldr	r3, [r7, #4]
  75 0058 180F     		lsr	r0, r3, #28
  76 005a BD68     		ldr	r5, [r7, #8]
  77 005c 2C01     		lsl	r4, r5, #4
  78 005e 0443     		orr	r4, r4, r0
  79 0060 7E68     		ldr	r6, [r7, #4]
  80 0062 3301     		lsl	r3, r6, #4
  81 0064 1D1C     		mov	r5, r3
  82 0066 261C     		mov	r6, r4
  83 0068 6D1A     		sub	r5, r5, r1
  84 006a 9641     		sbc	r6, r6, r2
  85 006c 7D60     		str	r5, [r7, #4]
  86 006e BE60     		str	r6, [r7, #8]
  87 0070 7E68     		ldr	r6, [r7, #4]
  88 0072 330F     		lsr	r3, r6, #28
  89 0074 B868     		ldr	r0, [r7, #8]
  90 0076 0201     		lsl	r2, r0, #4
  91 0078 1A43     		orr	r2, r2, r3
  92 007a 7B68     		ldr	r3, [r7, #4]
  93 007c 1901     		lsl	r1, r3, #4
  94 007e 7C68     		ldr	r4, [r7, #4]
  95 0080 BD68     		ldr	r5, [r7, #8]
  96 0082 091B     		sub	r1, r1, r4
  97 0084 AA41     		sbc	r2, r2, r5
  98 0086 880B     		lsr	r0, r1, #14
  99 0088 9404     		lsl	r4, r2, #18
 100 008a 0443     		orr	r4, r4, r0
 101 008c 8B04     		lsl	r3, r1, #18
 102 008e 181C     		mov	r0, r3
 103 0090 211C     		mov	r1, r4
 104 0092 214A     		ldr	r2, .L3+32
 105 0094 214B     		ldr	r3, .L3+36
 106 0096 FFF7FEFF 		bl	__udivdi3
 107 009a 031C     		mov	r3, r0
 108 009c 0C1C     		mov	r4, r1
 109 009e 3D68     		ldr	r5, [r7]
 110 00a0 2B60     		str	r3, [r5]
  54:main.c        ****     T1MR1 = (tU64)T1MR0 * duty_cycle / 100; //WypeÅ‚nienie
 111              		.loc 1 54 0
 112 00a2 1F4E     		ldr	r6, .L3+40
 113 00a4 1B4B     		ldr	r3, .L3+28
ARM GAS  /cygdrive/c/Users/embedded/AppData/Local/Temp/ccSAFOEw.s 			page 4


 114 00a6 1B68     		ldr	r3, [r3]
 115 00a8 0020     		mov	r0, #0
 116 00aa 191C     		mov	r1, r3
 117 00ac 021C     		mov	r2, r0
 118 00ae 3B1C     		mov	r3, r7
 119 00b0 0C33     		add	r3, r3, #12
 120 00b2 1878     		ldrb	r0, [r3]
 121 00b4 0025     		mov	r5, #0
 122 00b6 031C     		mov	r3, r0
 123 00b8 2C1C     		mov	r4, r5
 124 00ba 081C     		mov	r0, r1
 125 00bc 111C     		mov	r1, r2
 126 00be 1A1C     		mov	r2, r3
 127 00c0 231C     		mov	r3, r4
 128 00c2 FFF7FEFF 		bl	__muldi3
 129 00c6 031C     		mov	r3, r0
 130 00c8 0C1C     		mov	r4, r1
 131 00ca 181C     		mov	r0, r3
 132 00cc 211C     		mov	r1, r4
 133 00ce 6422     		mov	r2, #100
 134 00d0 0023     		mov	r3, #0
 135 00d2 FFF7FEFF 		bl	__udivdi3
 136 00d6 031C     		mov	r3, r0
 137 00d8 0C1C     		mov	r4, r1
 138 00da 3360     		str	r3, [r6]
  55:main.c        ****     T1IR  = TIMER_ALL_INT;                  //Resetowanie flag przerwaÅ„
 139              		.loc 1 55 0
 140 00dc 114A     		ldr	r2, .L3+44
 141 00de FF23     		mov	r3, #255
 142 00e0 1360     		str	r3, [r2]
  56:main.c        ****     T1MCR = MR0_I | MR1_I | MR0_R;          //Generuj okresowe przerwania dla MR0 i dodatkowo dla M
 143              		.loc 1 56 0
 144 00e2 114A     		ldr	r2, .L3+48
 145 00e4 0B23     		mov	r3, #11
 146 00e6 1360     		str	r3, [r2]
  57:main.c        ****     T1TCR = TIMER_RUN;                      //Uruchom timer
 147              		.loc 1 57 0
 148 00e8 084A     		ldr	r2, .L3+20
 149 00ea 0123     		mov	r3, #1
 150 00ec 1360     		str	r3, [r2]
  58:main.c        **** }
 151              		.loc 1 58 0
 152 00ee BD46     		mov	sp, r7
 153 00f0 05B0     		add	sp, sp, #20
 154              		@ sp needed for prologue
 155 00f2 F0BC     		pop	{r4, r5, r6, r7}
 156 00f4 01BC     		pop	{r0}
 157 00f6 0047     		bx	r0
 158              	.L4:
 159              		.align	2
 160              	.L3:
 161 00f8 0CF0FFFF 		.word	-4084
 162 00fc 14F1FFFF 		.word	-3820
 163 0100 00000000 		.word	IRQ_Test
 164 0104 14F2FFFF 		.word	-3564
 165 0108 10F0FFFF 		.word	-4080
 166 010c 048000E0 		.word	-536838140
ARM GAS  /cygdrive/c/Users/embedded/AppData/Local/Temp/ccSAFOEw.s 			page 5


 167 0110 0C8000E0 		.word	-536838132
 168 0114 188000E0 		.word	-536838120
 169 0118 E8030000 		.word	1000
 170 011c 00000000 		.word	0
 171 0120 1C8000E0 		.word	-536838116
 172 0124 008000E0 		.word	-536838144
 173 0128 148000E0 		.word	-536838124
 174              	.LFE2:
 175              		.size	init_irq, .-init_irq
 176              		.section	.rodata
 177              		.align	2
 178              	.LC1:
 179 0000 256400   		.ascii	"%d\000"
 180 0003 00       		.align	2
 181              	.LC3:
 182 0004 5A617069 		.ascii	"Zapisano wynik\000"
 182      73616E6F 
 182      2077796E 
 182      696B00
 183 0013 00       		.align	2
 184              	.LC5:
 185 0014 426C6164 		.ascii	"Blad zapisu\000"
 185      207A6170 
 185      69737500 
 186              		.text
 187              		.align	2
 188              		.global	zapisz_wynik
 189              		.code 16
 190              		.thumb_func
 191              		.type	zapisz_wynik, %function
 192              	zapisz_wynik:
 193              	.LFB3:
  59:main.c        **** 
  60:main.c        **** /************************************************************************
  61:main.c        ****  * @Description: Zapisanie nowego najwyzszego wyniku gry
  62:main.c        ****  * @Parameter:
  63:main.c        ****  *    [in] nowy_rekord    : rekord z ostatniej gry
  64:main.c        ****  *    [in] aktualny_rekord: najwyzszy dotychczasowy rekord zapisany w pamieci
  65:main.c        ****  * @Returns: Nic
  66:main.c        ****  * @Side effects: Brak
  67:main.c        ****  *************************************************************************/
  68:main.c        **** void zapisz_wynik(int nowy_rekord, int aktualny_rekord)
  69:main.c        **** {
 194              		.loc 1 69 0
 195 012c 80B5     		push	{r7, lr}
 196              	.LCFI3:
 197 012e 84B0     		sub	sp, sp, #16
 198              	.LCFI4:
 199 0130 00AF     		add	r7, sp, #0
 200              	.LCFI5:
 201 0132 3B1D     		add	r3, r7, #4
 202 0134 1860     		str	r0, [r3]
 203 0136 3B1C     		mov	r3, r7
 204 0138 1960     		str	r1, [r3]
  70:main.c        ****     if (nowy_rekord > aktualny_rekord)
 205              		.loc 1 70 0
 206 013a 3B1D     		add	r3, r7, #4
ARM GAS  /cygdrive/c/Users/embedded/AppData/Local/Temp/ccSAFOEw.s 			page 6


 207 013c 3A1C     		mov	r2, r7
 208 013e 1968     		ldr	r1, [r3]
 209 0140 1368     		ldr	r3, [r2]
 210 0142 9942     		cmp	r1, r3
 211 0144 35DD     		ble	.L10
 212              	.LBB2:
  71:main.c        ****     {
  72:main.c        ****         char wynik[6];
  73:main.c        ****         sprintf(wynik, "%d", nowy_rekord);
 213              		.loc 1 73 0
 214 0146 3A1C     		mov	r2, r7
 215 0148 0932     		add	r2, r2, #9
 216 014a 1C49     		ldr	r1, .L11
 217 014c 3B1D     		add	r3, r7, #4
 218 014e 1B68     		ldr	r3, [r3]
 219 0150 101C     		mov	r0, r2
 220 0152 1A1C     		mov	r2, r3
 221 0154 FFF7FEFF 		bl	sprintf
  74:main.c        **** 
  75:main.c        ****         tS8 kod_bledu;
  76:main.c        ****         kod_bledu = eepromWrite(0x0000,(tU8*) wynik, 6);
 222              		.loc 1 76 0
 223 0158 3B1C     		mov	r3, r7
 224 015a 0933     		add	r3, r3, #9
 225 015c 0020     		mov	r0, #0
 226 015e 191C     		mov	r1, r3
 227 0160 0622     		mov	r2, #6
 228 0162 FFF7FEFF 		bl	eepromWrite
 229 0166 031C     		mov	r3, r0
 230 0168 1B06     		lsl	r3, r3, #24
 231 016a 1B0E     		lsr	r3, r3, #24
 232 016c 3A1C     		mov	r2, r7
 233 016e 0F32     		add	r2, r2, #15
 234 0170 1370     		strb	r3, [r2]
  77:main.c        ****         if (kod_bledu == I2C_CODE_OK) {
 235              		.loc 1 77 0
 236 0172 3B1C     		mov	r3, r7
 237 0174 0F33     		add	r3, r3, #15
 238 0176 1B78     		ldrb	r3, [r3, #0]
 239 0178 1B06     		lsl	r3, r3, #24
 240 017a 1B16     		asr	r3, r3, #24
 241 017c 012B     		cmp	r3, #1
 242 017e 0CD1     		bne	.L8
  78:main.c        ****             lcdGotoxy(5, 10);
 243              		.loc 1 78 0
 244 0180 0520     		mov	r0, #5
 245 0182 0A21     		mov	r1, #10
 246 0184 FFF7FEFF 		bl	lcdGotoxy
  79:main.c        ****             lcdPuts("Zapisano wynik");
 247              		.loc 1 79 0
 248 0188 0D4B     		ldr	r3, .L11+4
 249 018a 181C     		mov	r0, r3
 250 018c FFF7FEFF 		bl	lcdPuts
  80:main.c        ****             mdelay(1500);
 251              		.loc 1 80 0
 252 0190 0C4B     		ldr	r3, .L11+8
 253 0192 181C     		mov	r0, r3
ARM GAS  /cygdrive/c/Users/embedded/AppData/Local/Temp/ccSAFOEw.s 			page 7


 254 0194 FFF7FEFF 		bl	mdelay
 255 0198 0BE0     		b	.L10
 256              	.L8:
  81:main.c        ****         } else {
  82:main.c        ****             lcdGotoxy(5, 10);
 257              		.loc 1 82 0
 258 019a 0520     		mov	r0, #5
 259 019c 0A21     		mov	r1, #10
 260 019e FFF7FEFF 		bl	lcdGotoxy
  83:main.c        ****             lcdPuts("Blad zapisu");
 261              		.loc 1 83 0
 262 01a2 094B     		ldr	r3, .L11+12
 263 01a4 181C     		mov	r0, r3
 264 01a6 FFF7FEFF 		bl	lcdPuts
  84:main.c        ****             mdelay(1500);
 265              		.loc 1 84 0
 266 01aa 064B     		ldr	r3, .L11+8
 267 01ac 181C     		mov	r0, r3
 268 01ae FFF7FEFF 		bl	mdelay
 269              	.L10:
 270              	.LBE2:
  85:main.c        ****         }
  86:main.c        ****     }
  87:main.c        **** }
 271              		.loc 1 87 0
 272 01b2 BD46     		mov	sp, r7
 273 01b4 04B0     		add	sp, sp, #16
 274              		@ sp needed for prologue
 275 01b6 80BC     		pop	{r7}
 276 01b8 01BC     		pop	{r0}
 277 01ba 0047     		bx	r0
 278              	.L12:
 279              		.align	2
 280              	.L11:
 281 01bc 00000000 		.word	.LC1
 282 01c0 04000000 		.word	.LC3
 283 01c4 DC050000 		.word	1500
 284 01c8 14000000 		.word	.LC5
 285              	.LFE3:
 286              		.size	zapisz_wynik, .-zapisz_wynik
 287              		.align	2
 288              		.global	wczytaj_wynik
 289              		.code 16
 290              		.thumb_func
 291              		.type	wczytaj_wynik, %function
 292              	wczytaj_wynik:
 293              	.LFB4:
  88:main.c        **** 
  89:main.c        **** /************************************************************************
  90:main.c        ****  * @Description: Wczytanie wyniku gry z pamieci
  91:main.c        ****  * @Parameter: Brak
  92:main.c        ****  * @Returns: wynik, liczba calkowita okreslajaca wynik gracza
  93:main.c        ****  * @Side effects: Brak
  94:main.c        ****  *************************************************************************/
  95:main.c        **** int wczytaj_wynik()
  96:main.c        **** {
 294              		.loc 1 96 0
ARM GAS  /cygdrive/c/Users/embedded/AppData/Local/Temp/ccSAFOEw.s 			page 8


 295 01cc 90B5     		push	{r4, r7, lr}
 296              	.LCFI6:
 297 01ce 83B0     		sub	sp, sp, #12
 298              	.LCFI7:
 299 01d0 00AF     		add	r7, sp, #0
 300              	.LCFI8:
  97:main.c        ****     tU8 testBuf[6];
  98:main.c        ****     eepromPageRead(0x0000, testBuf, 6);
 301              		.loc 1 98 0
 302 01d2 BB1D     		add	r3, r7, #6
 303 01d4 0020     		mov	r0, #0
 304 01d6 191C     		mov	r1, r3
 305 01d8 0622     		mov	r2, #6
 306 01da FFF7FEFF 		bl	eepromPageRead
  99:main.c        ****     int wynik;
 100:main.c        **** 
 101:main.c        ****     sscanf(testBuf, "%d", &wynik);
 307              		.loc 1 101 0
 308 01de BB1D     		add	r3, r7, #6
 309 01e0 074A     		ldr	r2, .L15
 310 01e2 3C1C     		mov	r4, r7
 311 01e4 181C     		mov	r0, r3
 312 01e6 111C     		mov	r1, r2
 313 01e8 221C     		mov	r2, r4
 314 01ea FFF7FEFF 		bl	sscanf
 102:main.c        **** 
 103:main.c        ****     return wynik;
 315              		.loc 1 103 0
 316 01ee 3B1C     		mov	r3, r7
 317 01f0 1B68     		ldr	r3, [r3]
 104:main.c        **** }
 318              		.loc 1 104 0
 319 01f2 181C     		mov	r0, r3
 320 01f4 BD46     		mov	sp, r7
 321 01f6 03B0     		add	sp, sp, #12
 322              		@ sp needed for prologue
 323 01f8 90BC     		pop	{r4, r7}
 324 01fa 02BC     		pop	{r1}
 325 01fc 0847     		bx	r1
 326              	.L16:
 327 01fe 0000     		.align	2
 328              	.L15:
 329 0200 00000000 		.word	.LC1
 330              	.LFE4:
 331              		.size	wczytaj_wynik, .-wczytaj_wynik
 332              		.section	.rodata
 333              		.align	2
 334              	.LC9:
 335 0020 55706C79 		.ascii	"Uplynal czas\012 PRZEGRALES\000"
 335      6E616C20 
 335      637A6173 
 335      0A205052 
 335      5A454752 
 336              		.text
 337              		.align	2
 338              		.global	game
 339              		.code 16
ARM GAS  /cygdrive/c/Users/embedded/AppData/Local/Temp/ccSAFOEw.s 			page 9


 340              		.thumb_func
 341              		.type	game, %function
 342              	game:
 343              	.LFB5:
 105:main.c        **** 
 106:main.c        **** /************************************************************************
 107:main.c        ****  * @Description: Logika gry. Gra trwa 10 rund.
 108:main.c        ****  * W kazdej rundzie uzytkownik ma za zadanie nacisnac przycisk odpowiadajacy
 109:main.c        ****  * zapalonej diodzie w ograniczonym czasie.
 110:main.c        ****  * @Parameter:
 111:main.c        ****  *     [in] trudnosc    : Okresla czas, w ktorym uzytkownik musi nacisnac przycisk aby nie przegrac
 112:main.c        ****  * @Returns: Nic
 113:main.c        ****  * @Side effects: Brak
 114:main.c        ****  *************************************************************************/
 115:main.c        **** void game(int trudnosc){
 344              		.loc 1 115 0
 345 0204 80B5     		push	{r7, lr}
 346              	.LCFI9:
 347 0206 87B0     		sub	sp, sp, #28
 348              	.LCFI10:
 349 0208 00AF     		add	r7, sp, #0
 350              	.LCFI11:
 351 020a 3B1C     		mov	r3, r7
 352 020c 1860     		str	r0, [r3]
 116:main.c        ****     tBool przegrana = FALSE;
 353              		.loc 1 116 0
 354 020e 3A1C     		mov	r2, r7
 355 0210 0C32     		add	r2, r2, #12
 356 0212 0023     		mov	r3, #0
 357 0214 1360     		str	r3, [r2]
 117:main.c        ****     int wynik = 0;
 358              		.loc 1 117 0
 359 0216 3A1C     		mov	r2, r7
 360 0218 1032     		add	r2, r2, #16
 361 021a 0023     		mov	r3, #0
 362 021c 1360     		str	r3, [r2]
 118:main.c        ****     int runda = 0;
 363              		.loc 1 118 0
 364 021e 3A1C     		mov	r2, r7
 365 0220 1432     		add	r2, r2, #20
 366 0222 0023     		mov	r3, #0
 367 0224 1360     		str	r3, [r2]
 119:main.c        ****     int czas = 0;
 368              		.loc 1 119 0
 369 0226 3A1C     		mov	r2, r7
 370 0228 1832     		add	r2, r2, #24
 371 022a 0023     		mov	r3, #0
 372 022c 1360     		str	r3, [r2]
 120:main.c        ****     if (trudnosc == 0){
 373              		.loc 1 120 0
 374 022e 3B1C     		mov	r3, r7
 375 0230 1B68     		ldr	r3, [r3]
 376 0232 002B     		cmp	r3, #0
 377 0234 04D1     		bne	.L18
 121:main.c        **** 		czas = 3000;
 378              		.loc 1 121 0
 379 0236 3A1C     		mov	r2, r7
ARM GAS  /cygdrive/c/Users/embedded/AppData/Local/Temp/ccSAFOEw.s 			page 10


 380 0238 1832     		add	r2, r2, #24
 381 023a CC4B     		ldr	r3, .L64
 382 023c 1360     		str	r3, [r2]
 383 023e 57E1     		b	.L24
 384              	.L18:
 122:main.c        **** 	} else if (trudnosc == 1){
 385              		.loc 1 122 0
 386 0240 3B1C     		mov	r3, r7
 387 0242 1B68     		ldr	r3, [r3]
 388 0244 012B     		cmp	r3, #1
 389 0246 05D1     		bne	.L21
 123:main.c        **** 		czas = 2000;
 390              		.loc 1 123 0
 391 0248 3A1C     		mov	r2, r7
 392 024a 1832     		add	r2, r2, #24
 393 024c FA23     		mov	r3, #250
 394 024e DB00     		lsl	r3, r3, #3
 395 0250 1360     		str	r3, [r2]
 396 0252 4DE1     		b	.L24
 397              	.L21:
 124:main.c        **** 	} else if (trudnosc == 2){
 398              		.loc 1 124 0
 399 0254 3B1C     		mov	r3, r7
 400 0256 1B68     		ldr	r3, [r3]
 401 0258 022B     		cmp	r3, #2
 402 025a 00D0     		beq	.LCB345
 403 025c 48E1     		b	.L24	@long jump
 404              	.LCB345:
 125:main.c        **** 		czas = 1000;
 405              		.loc 1 125 0
 406 025e 3A1C     		mov	r2, r7
 407 0260 1832     		add	r2, r2, #24
 408 0262 FA23     		mov	r3, #250
 409 0264 9B00     		lsl	r3, r3, #2
 410 0266 1360     		str	r3, [r2]
 126:main.c        **** 	}
 127:main.c        **** 
 128:main.c        ****     while (!przegrana && runda < 10) {
 411              		.loc 1 128 0
 412 0268 42E1     		b	.L24
 413              	.L25:
 129:main.c        ****         mdelay(1000);
 414              		.loc 1 129 0
 415 026a FA23     		mov	r3, #250
 416 026c 9B00     		lsl	r3, r3, #2
 417 026e 181C     		mov	r0, r3
 418 0270 FFF7FEFF 		bl	mdelay
 130:main.c        **** 
 131:main.c        **** 		T0TCR = 0x02;
 419              		.loc 1 131 0
 420 0274 BE4A     		ldr	r2, .L64+4
 421 0276 0223     		mov	r3, #2
 422 0278 1360     		str	r3, [r2]
 132:main.c        **** 		T0PR = (PERIPHERAL_CLOCK / 1000) - 1;
 423              		.loc 1 132 0
 424 027a BE4A     		ldr	r2, .L64+8
 425 027c BE4B     		ldr	r3, .L64+12
ARM GAS  /cygdrive/c/Users/embedded/AppData/Local/Temp/ccSAFOEw.s 			page 11


 426 027e 1360     		str	r3, [r2]
 133:main.c        **** 		T0MR0 = 4000;
 427              		.loc 1 133 0
 428 0280 BE4A     		ldr	r2, .L64+16
 429 0282 FA23     		mov	r3, #250
 430 0284 1B01     		lsl	r3, r3, #4
 431 0286 1360     		str	r3, [r2]
 134:main.c        **** 		T0MCR = 0x03;
 432              		.loc 1 134 0
 433 0288 BD4A     		ldr	r2, .L64+20
 434 028a 0323     		mov	r3, #3
 435 028c 1360     		str	r3, [r2]
 135:main.c        **** 		T0TCR = 0x01;
 436              		.loc 1 135 0
 437 028e B84A     		ldr	r2, .L64+4
 438 0290 0123     		mov	r3, #1
 439 0292 1360     		str	r3, [r2]
 136:main.c        **** 
 137:main.c        ****         if (losowosc % 4 == 0) {
 440              		.loc 1 137 0
 441 0294 BB4B     		ldr	r3, .L64+24
 442 0296 1A68     		ldr	r2, [r3]
 443 0298 0323     		mov	r3, #3
 444 029a 1340     		and	r3, r3, r2
 445 029c 002B     		cmp	r3, #0
 446 029e 44D1     		bne	.L26
 138:main.c        **** 
 139:main.c        ****             IOCLR1 = DIODA_16;
 447              		.loc 1 139 0
 448 02a0 B94A     		ldr	r2, .L64+28
 449 02a2 8023     		mov	r3, #128
 450 02a4 5B02     		lsl	r3, r3, #9
 451 02a6 1360     		str	r3, [r2]
 140:main.c        **** 
 141:main.c        ****             while (T0TC < czas) {
 452              		.loc 1 141 0
 453 02a8 12E0     		b	.L28
 454              	.L29:
 142:main.c        **** 
 143:main.c        ****                 if ((IOPIN1 & PRZYCISK_20) == 0)
 455              		.loc 1 143 0
 456 02aa B84B     		ldr	r3, .L64+32
 457 02ac 1A68     		ldr	r2, [r3]
 458 02ae 8023     		mov	r3, #128
 459 02b0 5B03     		lsl	r3, r3, #13
 460 02b2 1340     		and	r3, r3, r2
 461 02b4 002B     		cmp	r3, #0
 462 02b6 0BD1     		bne	.L28
 144:main.c        ****                 {
 145:main.c        ****                     IOSET1 = DIODA_16;
 463              		.loc 1 145 0
 464 02b8 B54A     		ldr	r2, .L64+36
 465 02ba 8023     		mov	r3, #128
 466 02bc 5B02     		lsl	r3, r3, #9
 467 02be 1360     		str	r3, [r2]
 146:main.c        ****                     runda++;
 468              		.loc 1 146 0
ARM GAS  /cygdrive/c/Users/embedded/AppData/Local/Temp/ccSAFOEw.s 			page 12


 469 02c0 3A1C     		mov	r2, r7
 470 02c2 1432     		add	r2, r2, #20
 471 02c4 3B1C     		mov	r3, r7
 472 02c6 1433     		add	r3, r3, #20
 473 02c8 1B68     		ldr	r3, [r3]
 474 02ca 0133     		add	r3, r3, #1
 475 02cc 1360     		str	r3, [r2]
 147:main.c        ****                     break;
 476              		.loc 1 147 0
 477 02ce 06E0     		b	.L31
 478              	.L28:
 479              		.loc 1 141 0
 480 02d0 B04B     		ldr	r3, .L64+40
 481 02d2 1A68     		ldr	r2, [r3]
 482 02d4 3B1C     		mov	r3, r7
 483 02d6 1833     		add	r3, r3, #24
 484 02d8 1B68     		ldr	r3, [r3]
 485 02da 9A42     		cmp	r2, r3
 486 02dc E5D3     		bcc	.L29
 487              	.L31:
 148:main.c        ****                 }
 149:main.c        ****             }
 150:main.c        ****             if (T0TC >= czas) {
 488              		.loc 1 150 0
 489 02de AD4B     		ldr	r3, .L64+40
 490 02e0 1A68     		ldr	r2, [r3]
 491 02e2 3B1C     		mov	r3, r7
 492 02e4 1833     		add	r3, r3, #24
 493 02e6 1B68     		ldr	r3, [r3]
 494 02e8 9A42     		cmp	r2, r3
 495 02ea 07D3     		bcc	.L32
 151:main.c        ****                 przegrana = TRUE;
 496              		.loc 1 151 0
 497 02ec 3A1C     		mov	r2, r7
 498 02ee 0C32     		add	r2, r2, #12
 499 02f0 0123     		mov	r3, #1
 500 02f2 1360     		str	r3, [r2]
 152:main.c        ****                 IOSET1 = DIODA_16;
 501              		.loc 1 152 0
 502 02f4 A64A     		ldr	r2, .L64+36
 503 02f6 8023     		mov	r3, #128
 504 02f8 5B02     		lsl	r3, r3, #9
 505 02fa 1360     		str	r3, [r2]
 506              	.L32:
 153:main.c        ****             }
 154:main.c        ****             wynik += (4000 - czas) - T0TC;
 507              		.loc 1 154 0
 508 02fc 3B1C     		mov	r3, r7
 509 02fe 1833     		add	r3, r3, #24
 510 0300 1B68     		ldr	r3, [r3]
 511 0302 5B42     		neg	r3, r3
 512 0304 1A1C     		mov	r2, r3
 513 0306 A34B     		ldr	r3, .L64+40
 514 0308 1B68     		ldr	r3, [r3]
 515 030a D21A     		sub	r2, r2, r3
 516 030c 3B1C     		mov	r3, r7
 517 030e 1033     		add	r3, r3, #16
ARM GAS  /cygdrive/c/Users/embedded/AppData/Local/Temp/ccSAFOEw.s 			page 13


 518 0310 1B68     		ldr	r3, [r3]
 519 0312 D318     		add	r3, r2, r3
 520 0314 FA21     		mov	r1, #250
 521 0316 0901     		lsl	r1, r1, #4
 522 0318 5A18     		add	r2, r3, r1
 523 031a 3B1C     		mov	r3, r7
 524 031c 1033     		add	r3, r3, #16
 525 031e 1A60     		str	r2, [r3]
 155:main.c        **** 			losowosc = T0TC; // kontynuujemy losowe wybieranie diód
 526              		.loc 1 155 0
 527 0320 9C4B     		ldr	r3, .L64+40
 528 0322 1A68     		ldr	r2, [r3]
 529 0324 974B     		ldr	r3, .L64+24
 530 0326 1A60     		str	r2, [r3]
 531 0328 DFE0     		b	.L34
 532              	.L26:
 156:main.c        **** 
 157:main.c        ****         } else if (losowosc % 4 == 1) {
 533              		.loc 1 157 0
 534 032a 964B     		ldr	r3, .L64+24
 535 032c 1A68     		ldr	r2, [r3]
 536 032e 0323     		mov	r3, #3
 537 0330 1340     		and	r3, r3, r2
 538 0332 012B     		cmp	r3, #1
 539 0334 44D1     		bne	.L35
 158:main.c        **** 
 159:main.c        ****             IOCLR1 = DIODA_17;
 540              		.loc 1 159 0
 541 0336 944A     		ldr	r2, .L64+28
 542 0338 8023     		mov	r3, #128
 543 033a 9B02     		lsl	r3, r3, #10
 544 033c 1360     		str	r3, [r2]
 160:main.c        **** 
 161:main.c        **** 			while (T0TC < czas) {
 545              		.loc 1 161 0
 546 033e 12E0     		b	.L37
 547              	.L38:
 162:main.c        **** 
 163:main.c        ****                 if ((IOPIN1 & PRZYCISK_21) == 0) {
 548              		.loc 1 163 0
 549 0340 924B     		ldr	r3, .L64+32
 550 0342 1A68     		ldr	r2, [r3]
 551 0344 8023     		mov	r3, #128
 552 0346 9B03     		lsl	r3, r3, #14
 553 0348 1340     		and	r3, r3, r2
 554 034a 002B     		cmp	r3, #0
 555 034c 0BD1     		bne	.L37
 164:main.c        ****                     IOSET1 = DIODA_17;
 556              		.loc 1 164 0
 557 034e 904A     		ldr	r2, .L64+36
 558 0350 8023     		mov	r3, #128
 559 0352 9B02     		lsl	r3, r3, #10
 560 0354 1360     		str	r3, [r2]
 165:main.c        ****                     runda++;
 561              		.loc 1 165 0
 562 0356 3A1C     		mov	r2, r7
 563 0358 1432     		add	r2, r2, #20
ARM GAS  /cygdrive/c/Users/embedded/AppData/Local/Temp/ccSAFOEw.s 			page 14


 564 035a 3B1C     		mov	r3, r7
 565 035c 1433     		add	r3, r3, #20
 566 035e 1B68     		ldr	r3, [r3]
 567 0360 0133     		add	r3, r3, #1
 568 0362 1360     		str	r3, [r2]
 166:main.c        ****                     break;
 569              		.loc 1 166 0
 570 0364 06E0     		b	.L40
 571              	.L37:
 572              		.loc 1 161 0
 573 0366 8B4B     		ldr	r3, .L64+40
 574 0368 1A68     		ldr	r2, [r3]
 575 036a 3B1C     		mov	r3, r7
 576 036c 1833     		add	r3, r3, #24
 577 036e 1B68     		ldr	r3, [r3]
 578 0370 9A42     		cmp	r2, r3
 579 0372 E5D3     		bcc	.L38
 580              	.L40:
 167:main.c        ****                 }
 168:main.c        ****             }
 169:main.c        ****             if (T0TC >= czas) {
 581              		.loc 1 169 0
 582 0374 874B     		ldr	r3, .L64+40
 583 0376 1A68     		ldr	r2, [r3]
 584 0378 3B1C     		mov	r3, r7
 585 037a 1833     		add	r3, r3, #24
 586 037c 1B68     		ldr	r3, [r3]
 587 037e 9A42     		cmp	r2, r3
 588 0380 07D3     		bcc	.L41
 170:main.c        ****                 przegrana = TRUE;
 589              		.loc 1 170 0
 590 0382 3A1C     		mov	r2, r7
 591 0384 0C32     		add	r2, r2, #12
 592 0386 0123     		mov	r3, #1
 593 0388 1360     		str	r3, [r2]
 171:main.c        ****                 IOSET1 = DIODA_17;
 594              		.loc 1 171 0
 595 038a 814A     		ldr	r2, .L64+36
 596 038c 8023     		mov	r3, #128
 597 038e 9B02     		lsl	r3, r3, #10
 598 0390 1360     		str	r3, [r2]
 599              	.L41:
 172:main.c        ****             }
 173:main.c        ****             wynik += (4000 - czas) - T0TC;
 600              		.loc 1 173 0
 601 0392 3B1C     		mov	r3, r7
 602 0394 1833     		add	r3, r3, #24
 603 0396 1B68     		ldr	r3, [r3]
 604 0398 5B42     		neg	r3, r3
 605 039a 1A1C     		mov	r2, r3
 606 039c 7D4B     		ldr	r3, .L64+40
 607 039e 1B68     		ldr	r3, [r3]
 608 03a0 D21A     		sub	r2, r2, r3
 609 03a2 3B1C     		mov	r3, r7
 610 03a4 1033     		add	r3, r3, #16
 611 03a6 1B68     		ldr	r3, [r3]
 612 03a8 D318     		add	r3, r2, r3
ARM GAS  /cygdrive/c/Users/embedded/AppData/Local/Temp/ccSAFOEw.s 			page 15


 613 03aa FA21     		mov	r1, #250
 614 03ac 0901     		lsl	r1, r1, #4
 615 03ae 5A18     		add	r2, r3, r1
 616 03b0 3B1C     		mov	r3, r7
 617 03b2 1033     		add	r3, r3, #16
 618 03b4 1A60     		str	r2, [r3]
 174:main.c        **** 			losowosc = T0TC;
 619              		.loc 1 174 0
 620 03b6 774B     		ldr	r3, .L64+40
 621 03b8 1A68     		ldr	r2, [r3]
 622 03ba 724B     		ldr	r3, .L64+24
 623 03bc 1A60     		str	r2, [r3]
 624 03be 94E0     		b	.L34
 625              	.L35:
 175:main.c        **** 
 176:main.c        ****         } else if (losowosc % 4 == 2) {
 626              		.loc 1 176 0
 627 03c0 704B     		ldr	r3, .L64+24
 628 03c2 1A68     		ldr	r2, [r3]
 629 03c4 0323     		mov	r3, #3
 630 03c6 1340     		and	r3, r3, r2
 631 03c8 022B     		cmp	r3, #2
 632 03ca 44D1     		bne	.L43
 177:main.c        **** 
 178:main.c        ****             IOCLR1 = DIODA_18;
 633              		.loc 1 178 0
 634 03cc 6E4A     		ldr	r2, .L64+28
 635 03ce 8023     		mov	r3, #128
 636 03d0 DB02     		lsl	r3, r3, #11
 637 03d2 1360     		str	r3, [r2]
 179:main.c        **** 
 180:main.c        **** 			while (T0TC < czas) {
 638              		.loc 1 180 0
 639 03d4 12E0     		b	.L45
 640              	.L46:
 181:main.c        **** 
 182:main.c        ****                 if ((IOPIN1 & PRZYCISK_22) == 0) {
 641              		.loc 1 182 0
 642 03d6 6D4B     		ldr	r3, .L64+32
 643 03d8 1A68     		ldr	r2, [r3]
 644 03da 8023     		mov	r3, #128
 645 03dc DB03     		lsl	r3, r3, #15
 646 03de 1340     		and	r3, r3, r2
 647 03e0 002B     		cmp	r3, #0
 648 03e2 0BD1     		bne	.L45
 183:main.c        ****                     IOSET1 = DIODA_18;
 649              		.loc 1 183 0
 650 03e4 6A4A     		ldr	r2, .L64+36
 651 03e6 8023     		mov	r3, #128
 652 03e8 DB02     		lsl	r3, r3, #11
 653 03ea 1360     		str	r3, [r2]
 184:main.c        ****                     runda++;
 654              		.loc 1 184 0
 655 03ec 3A1C     		mov	r2, r7
 656 03ee 1432     		add	r2, r2, #20
 657 03f0 3B1C     		mov	r3, r7
 658 03f2 1433     		add	r3, r3, #20
ARM GAS  /cygdrive/c/Users/embedded/AppData/Local/Temp/ccSAFOEw.s 			page 16


 659 03f4 1B68     		ldr	r3, [r3]
 660 03f6 0133     		add	r3, r3, #1
 661 03f8 1360     		str	r3, [r2]
 185:main.c        ****                     break;
 662              		.loc 1 185 0
 663 03fa 06E0     		b	.L48
 664              	.L45:
 665              		.loc 1 180 0
 666 03fc 654B     		ldr	r3, .L64+40
 667 03fe 1A68     		ldr	r2, [r3]
 668 0400 3B1C     		mov	r3, r7
 669 0402 1833     		add	r3, r3, #24
 670 0404 1B68     		ldr	r3, [r3]
 671 0406 9A42     		cmp	r2, r3
 672 0408 E5D3     		bcc	.L46
 673              	.L48:
 186:main.c        ****                 }
 187:main.c        ****             }
 188:main.c        ****             if (T0TC >= czas) {
 674              		.loc 1 188 0
 675 040a 624B     		ldr	r3, .L64+40
 676 040c 1A68     		ldr	r2, [r3]
 677 040e 3B1C     		mov	r3, r7
 678 0410 1833     		add	r3, r3, #24
 679 0412 1B68     		ldr	r3, [r3]
 680 0414 9A42     		cmp	r2, r3
 681 0416 07D3     		bcc	.L49
 189:main.c        ****                 przegrana = TRUE;
 682              		.loc 1 189 0
 683 0418 3A1C     		mov	r2, r7
 684 041a 0C32     		add	r2, r2, #12
 685 041c 0123     		mov	r3, #1
 686 041e 1360     		str	r3, [r2]
 190:main.c        ****                 IOSET1 = DIODA_18;
 687              		.loc 1 190 0
 688 0420 5B4A     		ldr	r2, .L64+36
 689 0422 8023     		mov	r3, #128
 690 0424 DB02     		lsl	r3, r3, #11
 691 0426 1360     		str	r3, [r2]
 692              	.L49:
 191:main.c        ****             }
 192:main.c        ****             wynik += (4000 - czas) - T0TC;
 693              		.loc 1 192 0
 694 0428 3B1C     		mov	r3, r7
 695 042a 1833     		add	r3, r3, #24
 696 042c 1B68     		ldr	r3, [r3]
 697 042e 5B42     		neg	r3, r3
 698 0430 1A1C     		mov	r2, r3
 699 0432 584B     		ldr	r3, .L64+40
 700 0434 1B68     		ldr	r3, [r3]
 701 0436 D21A     		sub	r2, r2, r3
 702 0438 3B1C     		mov	r3, r7
 703 043a 1033     		add	r3, r3, #16
 704 043c 1B68     		ldr	r3, [r3]
 705 043e D318     		add	r3, r2, r3
 706 0440 FA21     		mov	r1, #250
 707 0442 0901     		lsl	r1, r1, #4
ARM GAS  /cygdrive/c/Users/embedded/AppData/Local/Temp/ccSAFOEw.s 			page 17


 708 0444 5A18     		add	r2, r3, r1
 709 0446 3B1C     		mov	r3, r7
 710 0448 1033     		add	r3, r3, #16
 711 044a 1A60     		str	r2, [r3]
 193:main.c        **** 			losowosc = T0TC;
 712              		.loc 1 193 0
 713 044c 514B     		ldr	r3, .L64+40
 714 044e 1A68     		ldr	r2, [r3]
 715 0450 4C4B     		ldr	r3, .L64+24
 716 0452 1A60     		str	r2, [r3]
 717 0454 49E0     		b	.L34
 718              	.L43:
 194:main.c        **** 
 195:main.c        ****         } else if (losowosc % 4 == 3) {
 719              		.loc 1 195 0
 720 0456 4B4B     		ldr	r3, .L64+24
 721 0458 1A68     		ldr	r2, [r3]
 722 045a 0323     		mov	r3, #3
 723 045c 1340     		and	r3, r3, r2
 724 045e 032B     		cmp	r3, #3
 725 0460 43D1     		bne	.L34
 196:main.c        **** 
 197:main.c        ****             IOCLR1 = DIODA_19;
 726              		.loc 1 197 0
 727 0462 494A     		ldr	r2, .L64+28
 728 0464 8023     		mov	r3, #128
 729 0466 1B03     		lsl	r3, r3, #12
 730 0468 1360     		str	r3, [r2]
 198:main.c        **** 
 199:main.c        **** 			while (T0TC < czas) {
 731              		.loc 1 199 0
 732 046a 12E0     		b	.L52
 733              	.L53:
 200:main.c        **** 
 201:main.c        ****                 if ((IOPIN1 & PRZYCISK_23) == 0) {
 734              		.loc 1 201 0
 735 046c 474B     		ldr	r3, .L64+32
 736 046e 1A68     		ldr	r2, [r3]
 737 0470 8023     		mov	r3, #128
 738 0472 1B04     		lsl	r3, r3, #16
 739 0474 1340     		and	r3, r3, r2
 740 0476 002B     		cmp	r3, #0
 741 0478 0BD1     		bne	.L52
 202:main.c        ****                     IOSET1 = DIODA_19;
 742              		.loc 1 202 0
 743 047a 454A     		ldr	r2, .L64+36
 744 047c 8023     		mov	r3, #128
 745 047e 1B03     		lsl	r3, r3, #12
 746 0480 1360     		str	r3, [r2]
 203:main.c        ****                     runda++;
 747              		.loc 1 203 0
 748 0482 3A1C     		mov	r2, r7
 749 0484 1432     		add	r2, r2, #20
 750 0486 3B1C     		mov	r3, r7
 751 0488 1433     		add	r3, r3, #20
 752 048a 1B68     		ldr	r3, [r3]
 753 048c 0133     		add	r3, r3, #1
ARM GAS  /cygdrive/c/Users/embedded/AppData/Local/Temp/ccSAFOEw.s 			page 18


 754 048e 1360     		str	r3, [r2]
 204:main.c        ****                     break;
 755              		.loc 1 204 0
 756 0490 06E0     		b	.L55
 757              	.L52:
 758              		.loc 1 199 0
 759 0492 404B     		ldr	r3, .L64+40
 760 0494 1A68     		ldr	r2, [r3]
 761 0496 3B1C     		mov	r3, r7
 762 0498 1833     		add	r3, r3, #24
 763 049a 1B68     		ldr	r3, [r3]
 764 049c 9A42     		cmp	r2, r3
 765 049e E5D3     		bcc	.L53
 766              	.L55:
 205:main.c        ****                 }
 206:main.c        ****             }
 207:main.c        ****             if (T0TC >= czas) {
 767              		.loc 1 207 0
 768 04a0 3C4B     		ldr	r3, .L64+40
 769 04a2 1A68     		ldr	r2, [r3]
 770 04a4 3B1C     		mov	r3, r7
 771 04a6 1833     		add	r3, r3, #24
 772 04a8 1B68     		ldr	r3, [r3]
 773 04aa 9A42     		cmp	r2, r3
 774 04ac 07D3     		bcc	.L56
 208:main.c        ****                 przegrana = TRUE;
 775              		.loc 1 208 0
 776 04ae 3A1C     		mov	r2, r7
 777 04b0 0C32     		add	r2, r2, #12
 778 04b2 0123     		mov	r3, #1
 779 04b4 1360     		str	r3, [r2]
 209:main.c        ****                 IOSET1 = DIODA_19;
 780              		.loc 1 209 0
 781 04b6 364A     		ldr	r2, .L64+36
 782 04b8 8023     		mov	r3, #128
 783 04ba 1B03     		lsl	r3, r3, #12
 784 04bc 1360     		str	r3, [r2]
 785              	.L56:
 210:main.c        ****             }
 211:main.c        ****             wynik += (4000 - czas) - T0TC;
 786              		.loc 1 211 0
 787 04be 3B1C     		mov	r3, r7
 788 04c0 1833     		add	r3, r3, #24
 789 04c2 1B68     		ldr	r3, [r3]
 790 04c4 5B42     		neg	r3, r3
 791 04c6 1A1C     		mov	r2, r3
 792 04c8 324B     		ldr	r3, .L64+40
 793 04ca 1B68     		ldr	r3, [r3]
 794 04cc D21A     		sub	r2, r2, r3
 795 04ce 3B1C     		mov	r3, r7
 796 04d0 1033     		add	r3, r3, #16
 797 04d2 1B68     		ldr	r3, [r3]
 798 04d4 D318     		add	r3, r2, r3
 799 04d6 FA21     		mov	r1, #250
 800 04d8 0901     		lsl	r1, r1, #4
 801 04da 5A18     		add	r2, r3, r1
 802 04dc 3B1C     		mov	r3, r7
ARM GAS  /cygdrive/c/Users/embedded/AppData/Local/Temp/ccSAFOEw.s 			page 19


 803 04de 1033     		add	r3, r3, #16
 804 04e0 1A60     		str	r2, [r3]
 212:main.c        **** 			losowosc = T0TC;
 805              		.loc 1 212 0
 806 04e2 2C4B     		ldr	r3, .L64+40
 807 04e4 1A68     		ldr	r2, [r3]
 808 04e6 274B     		ldr	r3, .L64+24
 809 04e8 1A60     		str	r2, [r3]
 810              	.L34:
 213:main.c        ****         }
 214:main.c        **** 
 215:main.c        **** 		T0TCR = 0x02;
 811              		.loc 1 215 0
 812 04ea 214A     		ldr	r2, .L64+4
 813 04ec 0223     		mov	r3, #2
 814 04ee 1360     		str	r3, [r2]
 815              	.L24:
 816              		.loc 1 128 0
 817 04f0 3B1C     		mov	r3, r7
 818 04f2 0C33     		add	r3, r3, #12
 819 04f4 1B68     		ldr	r3, [r3]
 820 04f6 002B     		cmp	r3, #0
 821 04f8 05D1     		bne	.L58
 822 04fa 3B1C     		mov	r3, r7
 823 04fc 1433     		add	r3, r3, #20
 824 04fe 1B68     		ldr	r3, [r3]
 825 0500 092B     		cmp	r3, #9
 826 0502 00DC     		bgt	.LCB806
 827 0504 B1E6     		b	.L25	@long jump
 828              	.LCB806:
 829              	.L58:
 216:main.c        ****     }
 217:main.c        ****     if(przegrana){
 830              		.loc 1 217 0
 831 0506 3B1C     		mov	r3, r7
 832 0508 0C33     		add	r3, r3, #12
 833 050a 1B68     		ldr	r3, [r3]
 834 050c 002B     		cmp	r3, #0
 835 050e 0AD0     		beq	.L60
 218:main.c        ****     	lcdClrscr();
 836              		.loc 1 218 0
 837 0510 FFF7FEFF 		bl	lcdClrscr
 219:main.c        **** 		lcdGotoxy(2, 10);
 838              		.loc 1 219 0
 839 0514 0220     		mov	r0, #2
 840 0516 0A21     		mov	r1, #10
 841 0518 FFF7FEFF 		bl	lcdGotoxy
 220:main.c        **** 		lcdPuts("Uplynal czas\n PRZEGRALES");
 842              		.loc 1 220 0
 843 051c 1E4B     		ldr	r3, .L64+44
 844 051e 181C     		mov	r0, r3
 845 0520 FFF7FEFF 		bl	lcdPuts
 846 0524 1CE0     		b	.L63
 847              	.L60:
 848              	.LBB3:
 221:main.c        ****     } else {
 222:main.c        ****     	lcdClrscr();
ARM GAS  /cygdrive/c/Users/embedded/AppData/Local/Temp/ccSAFOEw.s 			page 20


 849              		.loc 1 222 0
 850 0526 FFF7FEFF 		bl	lcdClrscr
 223:main.c        **** 		lcdGotoxy(35, 65);
 851              		.loc 1 223 0
 852 052a 2320     		mov	r0, #35
 853 052c 4121     		mov	r1, #65
 854 052e FFF7FEFF 		bl	lcdGotoxy
 224:main.c        **** 		char pkt_char[7];
 225:main.c        **** 		sprintf(pkt_char, "%d", wynik);
 855              		.loc 1 225 0
 856 0532 7A1D     		add	r2, r7, #5
 857 0534 1949     		ldr	r1, .L64+48
 858 0536 3B1C     		mov	r3, r7
 859 0538 1033     		add	r3, r3, #16
 860 053a 1B68     		ldr	r3, [r3]
 861 053c 101C     		mov	r0, r2
 862 053e 1A1C     		mov	r2, r3
 863 0540 FFF7FEFF 		bl	sprintf
 226:main.c        **** 		lcdPuts(pkt_char);
 864              		.loc 1 226 0
 865 0544 7B1D     		add	r3, r7, #5
 866 0546 181C     		mov	r0, r3
 867 0548 FFF7FEFF 		bl	lcdPuts
 227:main.c        **** 		zapisz_wynik(wynik, wczytaj_wynik());
 868              		.loc 1 227 0
 869 054c FFF7FEFF 		bl	wczytaj_wynik
 870 0550 021C     		mov	r2, r0
 871 0552 3B1C     		mov	r3, r7
 872 0554 1033     		add	r3, r3, #16
 873 0556 1B68     		ldr	r3, [r3]
 874 0558 181C     		mov	r0, r3
 875 055a 111C     		mov	r1, r2
 876 055c FFF7FEFF 		bl	zapisz_wynik
 877              	.L63:
 878              	.LBE3:
 228:main.c        ****     }
 229:main.c        **** }
 879              		.loc 1 229 0
 880 0560 BD46     		mov	sp, r7
 881 0562 07B0     		add	sp, sp, #28
 882              		@ sp needed for prologue
 883 0564 80BC     		pop	{r7}
 884 0566 01BC     		pop	{r0}
 885 0568 0047     		bx	r0
 886              	.L65:
 887 056a 0000     		.align	2
 888              	.L64:
 889 056c B80B0000 		.word	3000
 890 0570 044000E0 		.word	-536854524
 891 0574 0C4000E0 		.word	-536854516
 892 0578 65E60000 		.word	58981
 893 057c 184000E0 		.word	-536854504
 894 0580 144000E0 		.word	-536854508
 895 0584 00000000 		.word	losowosc
 896 0588 1C8002E0 		.word	-536707044
 897 058c 108002E0 		.word	-536707056
 898 0590 148002E0 		.word	-536707052
ARM GAS  /cygdrive/c/Users/embedded/AppData/Local/Temp/ccSAFOEw.s 			page 21


 899 0594 084000E0 		.word	-536854520
 900 0598 20000000 		.word	.LC9
 901 059c 00000000 		.word	.LC1
 902              	.LFE5:
 903              		.size	game, .-game
 904              		.section	.rodata
 905 0039 000000   		.align	2
 906              	.LC13:
 907 003c 47726120 		.ascii	"Gra Refleks\000"
 907      5265666C 
 907      656B7300 
 908              		.align	2
 909              	.LC15:
 910 0048 506F7A69 		.ascii	"Poziom trudnosci\000"
 910      6F6D2074 
 910      7275646E 
 910      6F736369 
 910      00
 911 0059 000000   		.align	2
 912              	.LC17:
 913 005c 4E616A77 		.ascii	"Najwyzszy wynik\000"
 913      797A737A 
 913      79207779 
 913      6E696B00 
 914              		.align	2
 915              	.LC19:
 916 006c 4E616369 		.ascii	"Nacisnij dowolny\000"
 916      736E696A 
 916      20646F77 
 916      6F6C6E79 
 916      00
 917 007d 000000   		.align	2
 918              	.LC21:
 919 0080 70727A79 		.ascii	"przycisk by\000"
 919      6369736B 
 919      20627900 
 920              		.align	2
 921              	.LC23:
 922 008c 726F7A70 		.ascii	"rozpoczac gre\000"
 922      6F637A61 
 922      63206772 
 922      6500
 923              		.global	__divsi3
 924 009a 0000     		.align	2
 925              	.LC25:
 926 009c 4C617477 		.ascii	"Latwy \000"
 926      792000
 927 00a3 00       		.align	2
 928              	.LC27:
 929 00a4 53726564 		.ascii	"Sredni\000"
 929      6E6900
 930 00ab 00       		.align	2
 931              	.LC29:
 932 00ac 54727564 		.ascii	"Trudny\000"
 932      6E7900
 933 00b3 00       		.text
 934              		.align	2
ARM GAS  /cygdrive/c/Users/embedded/AppData/Local/Temp/ccSAFOEw.s 			page 22


 935              		.global	main
 936              		.code 16
 937              		.thumb_func
 938              		.type	main, %function
 939              	main:
 940              	.LFB6:
 230:main.c        **** 
 231:main.c        **** /************************************************************************
 232:main.c        ****  * @Description: Funkcja glowna programu
 233:main.c        ****  * @Parameter: Brak
 234:main.c        ****  * @Returns: Poprawnosc wykonania programu
 235:main.c        ****  * @Side effects: Brak
 236:main.c        ****  *************************************************************************/
 237:main.c        **** int main(void)
 238:main.c        **** {
 941              		.loc 1 238 0
 942 05a0 90B5     		push	{r4, r7, lr}
 943              	.LCFI12:
 944 05a2 85B0     		sub	sp, sp, #20
 945              	.LCFI13:
 946 05a4 00AF     		add	r7, sp, #0
 947              	.LCFI14:
 239:main.c        **** 	//Inicjowanie
 240:main.c        ****     printf_init();
 948              		.loc 1 240 0
 949 05a6 FFF7FEFF 		bl	printf_init
 241:main.c        ****     i2cInit();
 950              		.loc 1 241 0
 951 05aa FFF7FEFF 		bl	i2cInit
 242:main.c        ****     lcdInit();
 952              		.loc 1 242 0
 953 05ae FFF7FEFF 		bl	lcdInit
 243:main.c        ****     initAdc();
 954              		.loc 1 243 0
 955 05b2 FFF7FEFF 		bl	initAdc
 244:main.c        ****     init_irq(500, 20);
 956              		.loc 1 244 0
 957 05b6 FA23     		mov	r3, #250
 958 05b8 5B00     		lsl	r3, r3, #1
 959 05ba 181C     		mov	r0, r3
 960 05bc 1421     		mov	r1, #20
 961 05be FFF71FFD 		bl	init_irq
 245:main.c        **** 	lcdColor(0xff, 0x00);
 962              		.loc 1 245 0
 963 05c2 FF20     		mov	r0, #255
 964 05c4 0021     		mov	r1, #0
 965 05c6 FFF7FEFF 		bl	lcdColor
 246:main.c        **** //  uruchomienie GPIO na nodach P1.16 do P1.25.
 247:main.c        **** 	PINSEL2 &= ~(1 << 3);
 966              		.loc 1 247 0
 967 05ca 7449     		ldr	r1, .L81
 968 05cc 734B     		ldr	r3, .L81
 969 05ce 1A68     		ldr	r2, [r3]
 970 05d0 0823     		mov	r3, #8
 971 05d2 101C     		mov	r0, r2
 972 05d4 9843     		bic	r0, r0, r3
 973 05d6 031C     		mov	r3, r0
ARM GAS  /cygdrive/c/Users/embedded/AppData/Local/Temp/ccSAFOEw.s 			page 23


 974 05d8 0B60     		str	r3, [r1]
 248:main.c        **** //  Kierunek out na nodzach P1.16 - P1.19
 249:main.c        **** 	IODIR1 |= DIODA_16;  //(1 << 16);
 975              		.loc 1 249 0
 976 05da 7149     		ldr	r1, .L81+4
 977 05dc 704B     		ldr	r3, .L81+4
 978 05de 1A68     		ldr	r2, [r3]
 979 05e0 8023     		mov	r3, #128
 980 05e2 5B02     		lsl	r3, r3, #9
 981 05e4 1343     		orr	r3, r3, r2
 982 05e6 0B60     		str	r3, [r1]
 250:main.c        **** 	IODIR1 |= DIODA_17;
 983              		.loc 1 250 0
 984 05e8 6D49     		ldr	r1, .L81+4
 985 05ea 6D4B     		ldr	r3, .L81+4
 986 05ec 1A68     		ldr	r2, [r3]
 987 05ee 8023     		mov	r3, #128
 988 05f0 9B02     		lsl	r3, r3, #10
 989 05f2 1343     		orr	r3, r3, r2
 990 05f4 0B60     		str	r3, [r1]
 251:main.c        **** 	IODIR1 |= DIODA_18;
 991              		.loc 1 251 0
 992 05f6 6A49     		ldr	r1, .L81+4
 993 05f8 694B     		ldr	r3, .L81+4
 994 05fa 1A68     		ldr	r2, [r3]
 995 05fc 8023     		mov	r3, #128
 996 05fe DB02     		lsl	r3, r3, #11
 997 0600 1343     		orr	r3, r3, r2
 998 0602 0B60     		str	r3, [r1]
 252:main.c        **** 	IODIR1 |= DIODA_19;
 999              		.loc 1 252 0
 1000 0604 6649     		ldr	r1, .L81+4
 1001 0606 664B     		ldr	r3, .L81+4
 1002 0608 1A68     		ldr	r2, [r3]
 1003 060a 8023     		mov	r3, #128
 1004 060c 1B03     		lsl	r3, r3, #12
 1005 060e 1343     		orr	r3, r3, r2
 1006 0610 0B60     		str	r3, [r1]
 253:main.c        **** 	IOSET1 = DIODA_16;
 1007              		.loc 1 253 0
 1008 0612 644A     		ldr	r2, .L81+8
 1009 0614 8023     		mov	r3, #128
 1010 0616 5B02     		lsl	r3, r3, #9
 1011 0618 1360     		str	r3, [r2]
 254:main.c        **** 	IOSET1 = DIODA_17;
 1012              		.loc 1 254 0
 1013 061a 624A     		ldr	r2, .L81+8
 1014 061c 8023     		mov	r3, #128
 1015 061e 9B02     		lsl	r3, r3, #10
 1016 0620 1360     		str	r3, [r2]
 255:main.c        **** 	IOSET1 = DIODA_18;
 1017              		.loc 1 255 0
 1018 0622 604A     		ldr	r2, .L81+8
 1019 0624 8023     		mov	r3, #128
 1020 0626 DB02     		lsl	r3, r3, #11
 1021 0628 1360     		str	r3, [r2]
 256:main.c        **** 	IOSET1 = DIODA_19;
ARM GAS  /cygdrive/c/Users/embedded/AppData/Local/Temp/ccSAFOEw.s 			page 24


 1022              		.loc 1 256 0
 1023 062a 5E4A     		ldr	r2, .L81+8
 1024 062c 8023     		mov	r3, #128
 1025 062e 1B03     		lsl	r3, r3, #12
 1026 0630 1360     		str	r3, [r2]
 257:main.c        **** 
 258:main.c        **** 	int rekord = wczytaj_wynik();
 1027              		.loc 1 258 0
 1028 0632 FFF7FEFF 		bl	wczytaj_wynik
 1029 0636 021C     		mov	r2, r0
 1030 0638 3B1C     		mov	r3, r7
 1031 063a 0833     		add	r3, r3, #8
 1032 063c 1A60     		str	r2, [r3]
 259:main.c        **** 	char rek_char[8];
 260:main.c        **** 	sprintf(rek_char, "%d", rekord);
 1033              		.loc 1 260 0
 1034 063e 3A1C     		mov	r2, r7
 1035 0640 5949     		ldr	r1, .L81+12
 1036 0642 3B1C     		mov	r3, r7
 1037 0644 0833     		add	r3, r3, #8
 1038 0646 1B68     		ldr	r3, [r3]
 1039 0648 101C     		mov	r0, r2
 1040 064a 1A1C     		mov	r2, r3
 1041 064c FFF7FEFF 		bl	sprintf
 261:main.c        **** 
 262:main.c        **** 	lcdClrscr();
 1042              		.loc 1 262 0
 1043 0650 FFF7FEFF 		bl	lcdClrscr
 263:main.c        **** 	lcdGotoxy(20, 5);
 1044              		.loc 1 263 0
 1045 0654 1420     		mov	r0, #20
 1046 0656 0521     		mov	r1, #5
 1047 0658 FFF7FEFF 		bl	lcdGotoxy
 264:main.c        **** 	lcdPuts("Gra Refleks");
 1048              		.loc 1 264 0
 1049 065c 534B     		ldr	r3, .L81+16
 1050 065e 181C     		mov	r0, r3
 1051 0660 FFF7FEFF 		bl	lcdPuts
 265:main.c        **** 	lcdGotoxy(2, 25);
 1052              		.loc 1 265 0
 1053 0664 0220     		mov	r0, #2
 1054 0666 1921     		mov	r1, #25
 1055 0668 FFF7FEFF 		bl	lcdGotoxy
 266:main.c        **** 	lcdPuts("Poziom trudnosci");
 1056              		.loc 1 266 0
 1057 066c 504B     		ldr	r3, .L81+20
 1058 066e 181C     		mov	r0, r3
 1059 0670 FFF7FEFF 		bl	lcdPuts
 267:main.c        **** 	lcdGotoxy(2, 50);
 1060              		.loc 1 267 0
 1061 0674 0220     		mov	r0, #2
 1062 0676 3221     		mov	r1, #50
 1063 0678 FFF7FEFF 		bl	lcdGotoxy
 268:main.c        **** 	lcdPuts("Najwyzszy wynik");
 1064              		.loc 1 268 0
 1065 067c 4D4B     		ldr	r3, .L81+24
 1066 067e 181C     		mov	r0, r3
ARM GAS  /cygdrive/c/Users/embedded/AppData/Local/Temp/ccSAFOEw.s 			page 25


 1067 0680 FFF7FEFF 		bl	lcdPuts
 269:main.c        **** 	lcdGotoxy(40, 64);
 1068              		.loc 1 269 0
 1069 0684 2820     		mov	r0, #40
 1070 0686 4021     		mov	r1, #64
 1071 0688 FFF7FEFF 		bl	lcdGotoxy
 270:main.c        **** 	lcdPuts(rek_char);
 1072              		.loc 1 270 0
 1073 068c 3B1C     		mov	r3, r7
 1074 068e 181C     		mov	r0, r3
 1075 0690 FFF7FEFF 		bl	lcdPuts
 271:main.c        **** 	lcdGotoxy(2, 76);
 1076              		.loc 1 271 0
 1077 0694 0220     		mov	r0, #2
 1078 0696 4C21     		mov	r1, #76
 1079 0698 FFF7FEFF 		bl	lcdGotoxy
 272:main.c        **** 	lcdPuts("Nacisnij dowolny");
 1080              		.loc 1 272 0
 1081 069c 464B     		ldr	r3, .L81+28
 1082 069e 181C     		mov	r0, r3
 1083 06a0 FFF7FEFF 		bl	lcdPuts
 273:main.c        **** 	lcdGotoxy(2, 89);
 1084              		.loc 1 273 0
 1085 06a4 0220     		mov	r0, #2
 1086 06a6 5921     		mov	r1, #89
 1087 06a8 FFF7FEFF 		bl	lcdGotoxy
 274:main.c        **** 	lcdPuts("przycisk by");
 1088              		.loc 1 274 0
 1089 06ac 434B     		ldr	r3, .L81+32
 1090 06ae 181C     		mov	r0, r3
 1091 06b0 FFF7FEFF 		bl	lcdPuts
 275:main.c        **** 	lcdGotoxy(2, 102);
 1092              		.loc 1 275 0
 1093 06b4 0220     		mov	r0, #2
 1094 06b6 6621     		mov	r1, #102
 1095 06b8 FFF7FEFF 		bl	lcdGotoxy
 276:main.c        **** 	lcdPuts("rozpoczac gre");
 1096              		.loc 1 276 0
 1097 06bc 404B     		ldr	r3, .L81+36
 1098 06be 181C     		mov	r0, r3
 1099 06c0 FFF7FEFF 		bl	lcdPuts
 277:main.c        **** 
 278:main.c        ****     int poziom = 0;
 1100              		.loc 1 278 0
 1101 06c4 3A1C     		mov	r2, r7
 1102 06c6 0C32     		add	r2, r2, #12
 1103 06c8 0023     		mov	r3, #0
 1104 06ca 1360     		str	r3, [r2]
 279:main.c        ****     int poz = 0;
 1105              		.loc 1 279 0
 1106 06cc 3A1C     		mov	r2, r7
 1107 06ce 1032     		add	r2, r2, #16
 1108 06d0 0023     		mov	r3, #0
 1109 06d2 1360     		str	r3, [r2]
 1110 06d4 FFE7     		b	.L80
 1111              	.L67:
 1112              	.L80:
ARM GAS  /cygdrive/c/Users/embedded/AppData/Local/Temp/ccSAFOEw.s 			page 26


 280:main.c        ****     while(TRUE){
 281:main.c        ****     	if ((IOPIN1 & PRZYCISK_20) == 0 || (IOPIN1 & PRZYCISK_21) == 0 || (IOPIN1 & PRZYCISK_22) == 0 
 1113              		.loc 1 281 0
 1114 06d6 3B4B     		ldr	r3, .L81+40
 1115 06d8 1A68     		ldr	r2, [r3]
 1116 06da 8023     		mov	r3, #128
 1117 06dc 5B03     		lsl	r3, r3, #13
 1118 06de 1340     		and	r3, r3, r2
 1119 06e0 002B     		cmp	r3, #0
 1120 06e2 4AD0     		beq	.L68
 1121 06e4 374B     		ldr	r3, .L81+40
 1122 06e6 1A68     		ldr	r2, [r3]
 1123 06e8 8023     		mov	r3, #128
 1124 06ea 9B03     		lsl	r3, r3, #14
 1125 06ec 1340     		and	r3, r3, r2
 1126 06ee 002B     		cmp	r3, #0
 1127 06f0 43D0     		beq	.L68
 1128 06f2 344B     		ldr	r3, .L81+40
 1129 06f4 1A68     		ldr	r2, [r3]
 1130 06f6 8023     		mov	r3, #128
 1131 06f8 DB03     		lsl	r3, r3, #15
 1132 06fa 1340     		and	r3, r3, r2
 1133 06fc 002B     		cmp	r3, #0
 1134 06fe 3CD0     		beq	.L68
 1135 0700 304B     		ldr	r3, .L81+40
 1136 0702 1A68     		ldr	r2, [r3]
 1137 0704 8023     		mov	r3, #128
 1138 0706 1B04     		lsl	r3, r3, #16
 1139 0708 1340     		and	r3, r3, r2
 1140 070a 002B     		cmp	r3, #0
 1141 070c 35D0     		beq	.L68
 282:main.c        ****     	{
 283:main.c        ****     		break;
 284:main.c        ****     	}
 285:main.c        ****     	poz = getAnalogueInput(AIN1);
 1142              		.loc 1 285 0
 1143 070e 0120     		mov	r0, #1
 1144 0710 FFF7FEFF 		bl	getAnalogueInput
 1145 0714 031C     		mov	r3, r0
 1146 0716 1A1C     		mov	r2, r3
 1147 0718 3B1C     		mov	r3, r7
 1148 071a 1033     		add	r3, r3, #16
 1149 071c 1A60     		str	r2, [r3]
 286:main.c        ****     	lcdGotoxy(2, 38);
 1150              		.loc 1 286 0
 1151 071e 0220     		mov	r0, #2
 1152 0720 2621     		mov	r1, #38
 1153 0722 FFF7FEFF 		bl	lcdGotoxy
 287:main.c        ****     	poziom = poz / 400;
 1154              		.loc 1 287 0
 1155 0726 3C1C     		mov	r4, r7
 1156 0728 0C34     		add	r4, r4, #12
 1157 072a 3B1C     		mov	r3, r7
 1158 072c 1033     		add	r3, r3, #16
 1159 072e 1B68     		ldr	r3, [r3]
 1160 0730 181C     		mov	r0, r3
 1161 0732 C821     		mov	r1, #200
ARM GAS  /cygdrive/c/Users/embedded/AppData/Local/Temp/ccSAFOEw.s 			page 27


 1162 0734 4900     		lsl	r1, r1, #1
 1163 0736 FFF7FEFF 		bl	__divsi3
 1164 073a 031C     		mov	r3, r0
 1165 073c 2360     		str	r3, [r4]
 288:main.c        **** 		if (poziom == 0){
 1166              		.loc 1 288 0
 1167 073e 3B1C     		mov	r3, r7
 1168 0740 0C33     		add	r3, r3, #12
 1169 0742 1B68     		ldr	r3, [r3]
 1170 0744 002B     		cmp	r3, #0
 1171 0746 04D1     		bne	.L73
 289:main.c        **** 			lcdPuts("Latwy ");
 1172              		.loc 1 289 0
 1173 0748 1F4B     		ldr	r3, .L81+44
 1174 074a 181C     		mov	r0, r3
 1175 074c FFF7FEFF 		bl	lcdPuts
 1176 0750 C1E7     		b	.L67
 1177              	.L73:
 290:main.c        **** 		} else if (poziom == 1){
 1178              		.loc 1 290 0
 1179 0752 3B1C     		mov	r3, r7
 1180 0754 0C33     		add	r3, r3, #12
 1181 0756 1B68     		ldr	r3, [r3]
 1182 0758 012B     		cmp	r3, #1
 1183 075a 04D1     		bne	.L76
 291:main.c        **** 			lcdPuts("Sredni");
 1184              		.loc 1 291 0
 1185 075c 1B4B     		ldr	r3, .L81+48
 1186 075e 181C     		mov	r0, r3
 1187 0760 FFF7FEFF 		bl	lcdPuts
 1188 0764 B7E7     		b	.L67
 1189              	.L76:
 292:main.c        **** 		} else if (poziom == 2){
 1190              		.loc 1 292 0
 1191 0766 3B1C     		mov	r3, r7
 1192 0768 0C33     		add	r3, r3, #12
 1193 076a 1B68     		ldr	r3, [r3]
 1194 076c 022B     		cmp	r3, #2
 1195 076e B2D1     		bne	.L67
 293:main.c        **** 			lcdPuts("Trudny");
 1196              		.loc 1 293 0
 1197 0770 174B     		ldr	r3, .L81+52
 1198 0772 181C     		mov	r0, r3
 1199 0774 FFF7FEFF 		bl	lcdPuts
 294:main.c        **** 		}
 295:main.c        **** 
 296:main.c        **** 
 297:main.c        ****     }
 1200              		.loc 1 297 0
 1201 0778 ADE7     		b	.L67
 1202              	.L68:
 298:main.c        **** 
 299:main.c        ****     mdelay(1000);
 1203              		.loc 1 299 0
 1204 077a FA23     		mov	r3, #250
 1205 077c 9B00     		lsl	r3, r3, #2
 1206 077e 181C     		mov	r0, r3
ARM GAS  /cygdrive/c/Users/embedded/AppData/Local/Temp/ccSAFOEw.s 			page 28


 1207 0780 FFF7FEFF 		bl	mdelay
 300:main.c        **** 
 301:main.c        **** 	game(poziom);
 1208              		.loc 1 301 0
 1209 0784 3B1C     		mov	r3, r7
 1210 0786 0C33     		add	r3, r3, #12
 1211 0788 1B68     		ldr	r3, [r3]
 1212 078a 181C     		mov	r0, r3
 1213 078c FFF7FEFF 		bl	game
 302:main.c        **** 
 303:main.c        **** }
 1214              		.loc 1 303 0
 1215 0790 BD46     		mov	sp, r7
 1216 0792 05B0     		add	sp, sp, #20
 1217              		@ sp needed for prologue
 1218 0794 90BC     		pop	{r4, r7}
 1219 0796 02BC     		pop	{r1}
 1220 0798 0847     		bx	r1
 1221              	.L82:
 1222 079a 0000     		.align	2
 1223              	.L81:
 1224 079c 14C002E0 		.word	-536690668
 1225 07a0 188002E0 		.word	-536707048
 1226 07a4 148002E0 		.word	-536707052
 1227 07a8 00000000 		.word	.LC1
 1228 07ac 3C000000 		.word	.LC13
 1229 07b0 48000000 		.word	.LC15
 1230 07b4 5C000000 		.word	.LC17
 1231 07b8 6C000000 		.word	.LC19
 1232 07bc 80000000 		.word	.LC21
 1233 07c0 8C000000 		.word	.LC23
 1234 07c4 108002E0 		.word	-536707056
 1235 07c8 9C000000 		.word	.LC25
 1236 07cc A4000000 		.word	.LC27
 1237 07d0 AC000000 		.word	.LC29
 1238              	.LFE6:
 1239              		.size	main, .-main
 1240              		.align	2
 1241              		.global	appTick
 1242              		.code 16
 1243              		.thumb_func
 1244              		.type	appTick, %function
 1245              	appTick:
 1246              	.LFB7:
 304:main.c        **** 
 305:main.c        **** 
 306:main.c        **** /************************************************************************
 307:main.c        ****  * @Description: The timer tick entry function that is called once every timer tick
 308:main.c        ****  *    interrupt in the RTOS. Observe that any processing in this
 309:main.c        ****  *    function must be kept as short as possible since this function
 310:main.c        ****  *    execute in interrupt context.
 311:main.c        ****  * @Parameter: [in] elapsedTime - The number of elapsed milliseconds since last call.
 312:main.c        ****  * @Returns: Nic
 313:main.c        ****  * @Side effects: Brak
 314:main.c        ****  *************************************************************************/
 315:main.c        **** void
 316:main.c        **** appTick(tU32 elapsedTime)
ARM GAS  /cygdrive/c/Users/embedded/AppData/Local/Temp/ccSAFOEw.s 			page 29


 317:main.c        **** {
 1247              		.loc 1 317 0
 1248 07d4 80B5     		push	{r7, lr}
 1249              	.LCFI15:
 1250 07d6 81B0     		sub	sp, sp, #4
 1251              	.LCFI16:
 1252 07d8 00AF     		add	r7, sp, #0
 1253              	.LCFI17:
 1254 07da 3B1C     		mov	r3, r7
 1255 07dc 1860     		str	r0, [r3]
 318:main.c        ****   ms += elapsedTime;
 1256              		.loc 1 318 0
 1257 07de 064B     		ldr	r3, .L85
 1258 07e0 1A68     		ldr	r2, [r3]
 1259 07e2 3B1C     		mov	r3, r7
 1260 07e4 1B68     		ldr	r3, [r3]
 1261 07e6 D218     		add	r2, r2, r3
 1262 07e8 034B     		ldr	r3, .L85
 1263 07ea 1A60     		str	r2, [r3]
 319:main.c        **** }
 1264              		.loc 1 319 0
 1265 07ec BD46     		mov	sp, r7
 1266 07ee 01B0     		add	sp, sp, #4
 1267              		@ sp needed for prologue
 1268 07f0 80BC     		pop	{r7}
 1269 07f2 01BC     		pop	{r0}
 1270 07f4 0047     		bx	r0
 1271              	.L86:
 1272 07f6 0000     		.align	2
 1273              	.L85:
 1274 07f8 00000000 		.word	ms
 1275              	.LFE7:
 1276              		.size	appTick, .-appTick
 1277              		.comm	losowosc,4,4
 1278              		.comm	ms,4,4
 1279              		.section	.debug_frame,"",%progbits
 1280              	.Lframe0:
 1281 0000 0C000000 		.4byte	.LECIE0-.LSCIE0
 1282              	.LSCIE0:
 1283 0004 FFFFFFFF 		.4byte	0xffffffff
 1284 0008 01       		.byte	0x1
 1285 0009 00       		.ascii	"\000"
 1286 000a 01       		.uleb128 0x1
 1287 000b 7C       		.sleb128 -4
 1288 000c 0E       		.byte	0xe
 1289 000d 0C       		.byte	0xc
 1290 000e 0D       		.uleb128 0xd
 1291 000f 00       		.uleb128 0x0
 1292              		.align	2
 1293              	.LECIE0:
 1294              	.LSFDE0:
 1295 0010 20000000 		.4byte	.LEFDE0-.LASFDE0
 1296              	.LASFDE0:
 1297 0014 00000000 		.4byte	.Lframe0
 1298 0018 00000000 		.4byte	.LFB2
 1299 001c 2C010000 		.4byte	.LFE2-.LFB2
 1300 0020 42       		.byte	0x4
ARM GAS  /cygdrive/c/Users/embedded/AppData/Local/Temp/ccSAFOEw.s 			page 30


 1301              		.4byte	.LCFI0-.LFB2
 1302 0021 0E       		.byte	0xe
 1303 0022 14       		.uleb128 0x14
 1304 0023 84       		.byte	0x84
 1305 0024 05       		.uleb128 0x5
 1306 0025 85       		.byte	0x85
 1307 0026 04       		.uleb128 0x4
 1308 0027 86       		.byte	0x86
 1309 0028 03       		.uleb128 0x3
 1310 0029 87       		.byte	0x87
 1311 002a 02       		.uleb128 0x2
 1312 002b 8E       		.byte	0x8e
 1313 002c 01       		.uleb128 0x1
 1314 002d 42       		.byte	0x4
 1315              		.4byte	.LCFI1-.LCFI0
 1316 002e 0E       		.byte	0xe
 1317 002f 28       		.uleb128 0x28
 1318 0030 42       		.byte	0x4
 1319              		.4byte	.LCFI2-.LCFI1
 1320 0031 0D       		.byte	0xd
 1321 0032 07       		.uleb128 0x7
 1322 0033 00       		.align	2
 1323              	.LEFDE0:
 1324              	.LSFDE2:
 1325 0034 1C000000 		.4byte	.LEFDE2-.LASFDE2
 1326              	.LASFDE2:
 1327 0038 00000000 		.4byte	.Lframe0
 1328 003c 2C010000 		.4byte	.LFB3
 1329 0040 A0000000 		.4byte	.LFE3-.LFB3
 1330 0044 42       		.byte	0x4
 1331              		.4byte	.LCFI3-.LFB3
 1332 0045 0E       		.byte	0xe
 1333 0046 08       		.uleb128 0x8
 1334 0047 87       		.byte	0x87
 1335 0048 02       		.uleb128 0x2
 1336 0049 8E       		.byte	0x8e
 1337 004a 01       		.uleb128 0x1
 1338 004b 42       		.byte	0x4
 1339              		.4byte	.LCFI4-.LCFI3
 1340 004c 0E       		.byte	0xe
 1341 004d 18       		.uleb128 0x18
 1342 004e 42       		.byte	0x4
 1343              		.4byte	.LCFI5-.LCFI4
 1344 004f 0D       		.byte	0xd
 1345 0050 07       		.uleb128 0x7
 1346 0051 000000   		.align	2
 1347              	.LEFDE2:
 1348              	.LSFDE4:
 1349 0054 1C000000 		.4byte	.LEFDE4-.LASFDE4
 1350              	.LASFDE4:
 1351 0058 00000000 		.4byte	.Lframe0
 1352 005c CC010000 		.4byte	.LFB4
 1353 0060 38000000 		.4byte	.LFE4-.LFB4
 1354 0064 42       		.byte	0x4
 1355              		.4byte	.LCFI6-.LFB4
 1356 0065 0E       		.byte	0xe
 1357 0066 0C       		.uleb128 0xc
ARM GAS  /cygdrive/c/Users/embedded/AppData/Local/Temp/ccSAFOEw.s 			page 31


 1358 0067 84       		.byte	0x84
 1359 0068 03       		.uleb128 0x3
 1360 0069 87       		.byte	0x87
 1361 006a 02       		.uleb128 0x2
 1362 006b 8E       		.byte	0x8e
 1363 006c 01       		.uleb128 0x1
 1364 006d 42       		.byte	0x4
 1365              		.4byte	.LCFI7-.LCFI6
 1366 006e 0E       		.byte	0xe
 1367 006f 18       		.uleb128 0x18
 1368 0070 42       		.byte	0x4
 1369              		.4byte	.LCFI8-.LCFI7
 1370 0071 0D       		.byte	0xd
 1371 0072 07       		.uleb128 0x7
 1372 0073 00       		.align	2
 1373              	.LEFDE4:
 1374              	.LSFDE6:
 1375 0074 1C000000 		.4byte	.LEFDE6-.LASFDE6
 1376              	.LASFDE6:
 1377 0078 00000000 		.4byte	.Lframe0
 1378 007c 04020000 		.4byte	.LFB5
 1379 0080 9C030000 		.4byte	.LFE5-.LFB5
 1380 0084 42       		.byte	0x4
 1381              		.4byte	.LCFI9-.LFB5
 1382 0085 0E       		.byte	0xe
 1383 0086 08       		.uleb128 0x8
 1384 0087 87       		.byte	0x87
 1385 0088 02       		.uleb128 0x2
 1386 0089 8E       		.byte	0x8e
 1387 008a 01       		.uleb128 0x1
 1388 008b 42       		.byte	0x4
 1389              		.4byte	.LCFI10-.LCFI9
 1390 008c 0E       		.byte	0xe
 1391 008d 24       		.uleb128 0x24
 1392 008e 42       		.byte	0x4
 1393              		.4byte	.LCFI11-.LCFI10
 1394 008f 0D       		.byte	0xd
 1395 0090 07       		.uleb128 0x7
 1396 0091 000000   		.align	2
 1397              	.LEFDE6:
 1398              	.LSFDE8:
 1399 0094 1C000000 		.4byte	.LEFDE8-.LASFDE8
 1400              	.LASFDE8:
 1401 0098 00000000 		.4byte	.Lframe0
 1402 009c A0050000 		.4byte	.LFB6
 1403 00a0 34020000 		.4byte	.LFE6-.LFB6
 1404 00a4 42       		.byte	0x4
 1405              		.4byte	.LCFI12-.LFB6
 1406 00a5 0E       		.byte	0xe
 1407 00a6 0C       		.uleb128 0xc
 1408 00a7 84       		.byte	0x84
 1409 00a8 03       		.uleb128 0x3
 1410 00a9 87       		.byte	0x87
 1411 00aa 02       		.uleb128 0x2
 1412 00ab 8E       		.byte	0x8e
 1413 00ac 01       		.uleb128 0x1
 1414 00ad 42       		.byte	0x4
ARM GAS  /cygdrive/c/Users/embedded/AppData/Local/Temp/ccSAFOEw.s 			page 32


 1415              		.4byte	.LCFI13-.LCFI12
 1416 00ae 0E       		.byte	0xe
 1417 00af 20       		.uleb128 0x20
 1418 00b0 42       		.byte	0x4
 1419              		.4byte	.LCFI14-.LCFI13
 1420 00b1 0D       		.byte	0xd
 1421 00b2 07       		.uleb128 0x7
 1422 00b3 00       		.align	2
 1423              	.LEFDE8:
 1424              	.LSFDE10:
 1425 00b4 1C000000 		.4byte	.LEFDE10-.LASFDE10
 1426              	.LASFDE10:
 1427 00b8 00000000 		.4byte	.Lframe0
 1428 00bc D4070000 		.4byte	.LFB7
 1429 00c0 28000000 		.4byte	.LFE7-.LFB7
 1430 00c4 42       		.byte	0x4
 1431              		.4byte	.LCFI15-.LFB7
 1432 00c5 0E       		.byte	0xe
 1433 00c6 08       		.uleb128 0x8
 1434 00c7 87       		.byte	0x87
 1435 00c8 02       		.uleb128 0x2
 1436 00c9 8E       		.byte	0x8e
 1437 00ca 01       		.uleb128 0x1
 1438 00cb 42       		.byte	0x4
 1439              		.4byte	.LCFI16-.LCFI15
 1440 00cc 0E       		.byte	0xe
 1441 00cd 0C       		.uleb128 0xc
 1442 00ce 42       		.byte	0x4
 1443              		.4byte	.LCFI17-.LCFI16
 1444 00cf 0D       		.byte	0xd
 1445 00d0 07       		.uleb128 0x7
 1446 00d1 000000   		.align	2
 1447              	.LEFDE10:
 1448              		.file 2 "general.h"
 1449              		.file 3 "add_irq.h"
 1450              		.text
 1451              	.Letext0:
 1452              		.section	.debug_loc,"",%progbits
 1453              	.Ldebug_loc0:
 1454              	.LLST0:
 1455 0000 00000000 		.4byte	.LFB2-.Ltext0
 1456 0004 02000000 		.4byte	.LCFI0-.Ltext0
 1457 0008 0100     		.2byte	0x1
 1458 000a 5D       		.byte	0x5d
 1459 000b 02000000 		.4byte	.LCFI0-.Ltext0
 1460 000f 04000000 		.4byte	.LCFI1-.Ltext0
 1461 0013 0200     		.2byte	0x2
 1462 0015 7D       		.byte	0x7d
 1463 0016 14       		.sleb128 20
 1464 0017 04000000 		.4byte	.LCFI1-.Ltext0
 1465 001b 06000000 		.4byte	.LCFI2-.Ltext0
 1466 001f 0200     		.2byte	0x2
 1467 0021 7D       		.byte	0x7d
 1468 0022 28       		.sleb128 40
 1469 0023 06000000 		.4byte	.LCFI2-.Ltext0
 1470 0027 2C010000 		.4byte	.LFE2-.Ltext0
 1471 002b 0200     		.2byte	0x2
ARM GAS  /cygdrive/c/Users/embedded/AppData/Local/Temp/ccSAFOEw.s 			page 33


 1472 002d 77       		.byte	0x77
 1473 002e 28       		.sleb128 40
 1474 002f 00000000 		.4byte	0x0
 1475 0033 00000000 		.4byte	0x0
 1476              	.LLST1:
 1477 0037 2C010000 		.4byte	.LFB3-.Ltext0
 1478 003b 2E010000 		.4byte	.LCFI3-.Ltext0
 1479 003f 0100     		.2byte	0x1
 1480 0041 5D       		.byte	0x5d
 1481 0042 2E010000 		.4byte	.LCFI3-.Ltext0
 1482 0046 30010000 		.4byte	.LCFI4-.Ltext0
 1483 004a 0200     		.2byte	0x2
 1484 004c 7D       		.byte	0x7d
 1485 004d 08       		.sleb128 8
 1486 004e 30010000 		.4byte	.LCFI4-.Ltext0
 1487 0052 32010000 		.4byte	.LCFI5-.Ltext0
 1488 0056 0200     		.2byte	0x2
 1489 0058 7D       		.byte	0x7d
 1490 0059 18       		.sleb128 24
 1491 005a 32010000 		.4byte	.LCFI5-.Ltext0
 1492 005e CC010000 		.4byte	.LFE3-.Ltext0
 1493 0062 0200     		.2byte	0x2
 1494 0064 77       		.byte	0x77
 1495 0065 18       		.sleb128 24
 1496 0066 00000000 		.4byte	0x0
 1497 006a 00000000 		.4byte	0x0
 1498              	.LLST2:
 1499 006e CC010000 		.4byte	.LFB4-.Ltext0
 1500 0072 CE010000 		.4byte	.LCFI6-.Ltext0
 1501 0076 0100     		.2byte	0x1
 1502 0078 5D       		.byte	0x5d
 1503 0079 CE010000 		.4byte	.LCFI6-.Ltext0
 1504 007d D0010000 		.4byte	.LCFI7-.Ltext0
 1505 0081 0200     		.2byte	0x2
 1506 0083 7D       		.byte	0x7d
 1507 0084 0C       		.sleb128 12
 1508 0085 D0010000 		.4byte	.LCFI7-.Ltext0
 1509 0089 D2010000 		.4byte	.LCFI8-.Ltext0
 1510 008d 0200     		.2byte	0x2
 1511 008f 7D       		.byte	0x7d
 1512 0090 18       		.sleb128 24
 1513 0091 D2010000 		.4byte	.LCFI8-.Ltext0
 1514 0095 04020000 		.4byte	.LFE4-.Ltext0
 1515 0099 0200     		.2byte	0x2
 1516 009b 77       		.byte	0x77
 1517 009c 18       		.sleb128 24
 1518 009d 00000000 		.4byte	0x0
 1519 00a1 00000000 		.4byte	0x0
 1520              	.LLST3:
 1521 00a5 04020000 		.4byte	.LFB5-.Ltext0
 1522 00a9 06020000 		.4byte	.LCFI9-.Ltext0
 1523 00ad 0100     		.2byte	0x1
 1524 00af 5D       		.byte	0x5d
 1525 00b0 06020000 		.4byte	.LCFI9-.Ltext0
 1526 00b4 08020000 		.4byte	.LCFI10-.Ltext0
 1527 00b8 0200     		.2byte	0x2
 1528 00ba 7D       		.byte	0x7d
ARM GAS  /cygdrive/c/Users/embedded/AppData/Local/Temp/ccSAFOEw.s 			page 34


 1529 00bb 08       		.sleb128 8
 1530 00bc 08020000 		.4byte	.LCFI10-.Ltext0
 1531 00c0 0A020000 		.4byte	.LCFI11-.Ltext0
 1532 00c4 0200     		.2byte	0x2
 1533 00c6 7D       		.byte	0x7d
 1534 00c7 24       		.sleb128 36
 1535 00c8 0A020000 		.4byte	.LCFI11-.Ltext0
 1536 00cc A0050000 		.4byte	.LFE5-.Ltext0
 1537 00d0 0200     		.2byte	0x2
 1538 00d2 77       		.byte	0x77
 1539 00d3 24       		.sleb128 36
 1540 00d4 00000000 		.4byte	0x0
 1541 00d8 00000000 		.4byte	0x0
 1542              	.LLST4:
 1543 00dc A0050000 		.4byte	.LFB6-.Ltext0
 1544 00e0 A2050000 		.4byte	.LCFI12-.Ltext0
 1545 00e4 0100     		.2byte	0x1
 1546 00e6 5D       		.byte	0x5d
 1547 00e7 A2050000 		.4byte	.LCFI12-.Ltext0
 1548 00eb A4050000 		.4byte	.LCFI13-.Ltext0
 1549 00ef 0200     		.2byte	0x2
 1550 00f1 7D       		.byte	0x7d
 1551 00f2 0C       		.sleb128 12
 1552 00f3 A4050000 		.4byte	.LCFI13-.Ltext0
 1553 00f7 A6050000 		.4byte	.LCFI14-.Ltext0
 1554 00fb 0200     		.2byte	0x2
 1555 00fd 7D       		.byte	0x7d
 1556 00fe 20       		.sleb128 32
 1557 00ff A6050000 		.4byte	.LCFI14-.Ltext0
 1558 0103 D4070000 		.4byte	.LFE6-.Ltext0
 1559 0107 0200     		.2byte	0x2
 1560 0109 77       		.byte	0x77
 1561 010a 20       		.sleb128 32
 1562 010b 00000000 		.4byte	0x0
 1563 010f 00000000 		.4byte	0x0
 1564              	.LLST5:
 1565 0113 D4070000 		.4byte	.LFB7-.Ltext0
 1566 0117 D6070000 		.4byte	.LCFI15-.Ltext0
 1567 011b 0100     		.2byte	0x1
 1568 011d 5D       		.byte	0x5d
 1569 011e D6070000 		.4byte	.LCFI15-.Ltext0
 1570 0122 D8070000 		.4byte	.LCFI16-.Ltext0
 1571 0126 0200     		.2byte	0x2
 1572 0128 7D       		.byte	0x7d
 1573 0129 08       		.sleb128 8
 1574 012a D8070000 		.4byte	.LCFI16-.Ltext0
 1575 012e DA070000 		.4byte	.LCFI17-.Ltext0
 1576 0132 0200     		.2byte	0x2
 1577 0134 7D       		.byte	0x7d
 1578 0135 0C       		.sleb128 12
 1579 0136 DA070000 		.4byte	.LCFI17-.Ltext0
 1580 013a FC070000 		.4byte	.LFE7-.Ltext0
 1581 013e 0200     		.2byte	0x2
 1582 0140 77       		.byte	0x77
 1583 0141 0C       		.sleb128 12
 1584 0142 00000000 		.4byte	0x0
 1585 0146 00000000 		.4byte	0x0
ARM GAS  /cygdrive/c/Users/embedded/AppData/Local/Temp/ccSAFOEw.s 			page 35


 1586              		.section	.debug_info
 1587 0000 E3030000 		.4byte	0x3e3
 1588 0004 0200     		.2byte	0x2
 1589 0006 00000000 		.4byte	.Ldebug_abbrev0
 1590 000a 04       		.byte	0x4
 1591 000b 01       		.uleb128 0x1
 1592 000c 00000000 		.4byte	.Ldebug_line0
 1593 0010 FC070000 		.4byte	.Letext0
 1594 0014 00000000 		.4byte	.Ltext0
 1595 0018 474E5520 		.ascii	"GNU C 4.1.1\000"
 1595      4320342E 
 1595      312E3100 
 1596 0024 01       		.byte	0x1
 1597 0025 6D61696E 		.ascii	"main.c\000"
 1597      2E6300
 1598 002c 2F637967 		.ascii	"/cygdrive/c/Embedded/eclipse/Demo/2138\000"
 1598      64726976 
 1598      652F632F 
 1598      456D6265 
 1598      64646564 
 1599 0053 02       		.uleb128 0x2
 1600 0054 74553800 		.ascii	"tU8\000"
 1601 0058 02       		.byte	0x2
 1602 0059 16       		.byte	0x16
 1603 005a 5E000000 		.4byte	0x5e
 1604 005e 03       		.uleb128 0x3
 1605 005f 756E7369 		.ascii	"unsigned char\000"
 1605      676E6564 
 1605      20636861 
 1605      7200
 1606 006d 01       		.byte	0x1
 1607 006e 08       		.byte	0x8
 1608 006f 03       		.uleb128 0x3
 1609 0070 73686F72 		.ascii	"short unsigned int\000"
 1609      7420756E 
 1609      7369676E 
 1609      65642069 
 1609      6E7400
 1610 0083 02       		.byte	0x2
 1611 0084 07       		.byte	0x7
 1612 0085 02       		.uleb128 0x2
 1613 0086 74553332 		.ascii	"tU32\000"
 1613      00
 1614 008b 02       		.byte	0x2
 1615 008c 18       		.byte	0x18
 1616 008d 91000000 		.4byte	0x91
 1617 0091 03       		.uleb128 0x3
 1618 0092 756E7369 		.ascii	"unsigned int\000"
 1618      676E6564 
 1618      20696E74 
 1618      00
 1619 009f 04       		.byte	0x4
 1620 00a0 07       		.byte	0x7
 1621 00a1 03       		.uleb128 0x3
 1622 00a2 6C6F6E67 		.ascii	"long long unsigned int\000"
 1622      206C6F6E 
 1622      6720756E 
ARM GAS  /cygdrive/c/Users/embedded/AppData/Local/Temp/ccSAFOEw.s 			page 36


 1622      7369676E 
 1622      65642069 
 1623 00b9 08       		.byte	0x8
 1624 00ba 07       		.byte	0x7
 1625 00bb 02       		.uleb128 0x2
 1626 00bc 74533800 		.ascii	"tS8\000"
 1627 00c0 02       		.byte	0x2
 1628 00c1 1A       		.byte	0x1a
 1629 00c2 C6000000 		.4byte	0xc6
 1630 00c6 03       		.uleb128 0x3
 1631 00c7 7369676E 		.ascii	"signed char\000"
 1631      65642063 
 1631      68617200 
 1632 00d3 01       		.byte	0x1
 1633 00d4 06       		.byte	0x6
 1634 00d5 03       		.uleb128 0x3
 1635 00d6 73686F72 		.ascii	"short int\000"
 1635      7420696E 
 1635      7400
 1636 00e0 02       		.byte	0x2
 1637 00e1 05       		.byte	0x5
 1638 00e2 03       		.uleb128 0x3
 1639 00e3 696E7400 		.ascii	"int\000"
 1640 00e7 04       		.byte	0x4
 1641 00e8 05       		.byte	0x5
 1642 00e9 03       		.uleb128 0x3
 1643 00ea 6C6F6E67 		.ascii	"long long int\000"
 1643      206C6F6E 
 1643      6720696E 
 1643      7400
 1644 00f8 08       		.byte	0x8
 1645 00f9 05       		.byte	0x5
 1646 00fa 04       		.uleb128 0x4
 1647 00fb 12010000 		.4byte	0x112
 1648 00ff 04       		.byte	0x4
 1649 0100 02       		.byte	0x2
 1650 0101 1E       		.byte	0x1e
 1651 0102 05       		.uleb128 0x5
 1652 0103 46414C53 		.ascii	"FALSE\000"
 1652      4500
 1653 0109 00       		.sleb128 0
 1654 010a 05       		.uleb128 0x5
 1655 010b 54525545 		.ascii	"TRUE\000"
 1655      00
 1656 0110 01       		.sleb128 1
 1657 0111 00       		.byte	0x0
 1658 0112 02       		.uleb128 0x2
 1659 0113 74426F6F 		.ascii	"tBool\000"
 1659      6C00
 1660 0119 02       		.byte	0x2
 1661 011a 1F       		.byte	0x1f
 1662 011b FA000000 		.4byte	0xfa
 1663 011f 06       		.uleb128 0x6
 1664 0120 00000000 		.4byte	.LASF0
 1665 0124 04       		.byte	0x4
 1666 0125 07       		.byte	0x7
 1667 0126 03       		.uleb128 0x3
ARM GAS  /cygdrive/c/Users/embedded/AppData/Local/Temp/ccSAFOEw.s 			page 37


 1668 0127 6C6F6E67 		.ascii	"long int\000"
 1668      20696E74 
 1668      00
 1669 0130 04       		.byte	0x4
 1670 0131 05       		.byte	0x5
 1671 0132 06       		.uleb128 0x6
 1672 0133 00000000 		.4byte	.LASF0
 1673 0137 04       		.byte	0x4
 1674 0138 07       		.byte	0x7
 1675 0139 03       		.uleb128 0x3
 1676 013a 63686172 		.ascii	"char\000"
 1676      00
 1677 013f 01       		.byte	0x1
 1678 0140 08       		.byte	0x8
 1679 0141 07       		.uleb128 0x7
 1680 0142 51010000 		.4byte	0x151
 1681 0146 39010000 		.4byte	0x139
 1682 014a 08       		.uleb128 0x8
 1683 014b 32010000 		.4byte	0x132
 1684 014f 07       		.byte	0x7
 1685 0150 00       		.byte	0x0
 1686 0151 09       		.uleb128 0x9
 1687 0152 95010000 		.4byte	0x195
 1688 0156 696E6974 		.ascii	"init_irq\000"
 1688      5F697271 
 1688      00
 1689 015f 01       		.byte	0x1
 1690 0160 2C       		.byte	0x2c
 1691 0161 01       		.byte	0x1
 1692 0162 00000000 		.4byte	.LFB2
 1693 0166 2C010000 		.4byte	.LFE2
 1694 016a 00000000 		.4byte	.LLST0
 1695 016e 0A       		.uleb128 0xa
 1696 016f 70657269 		.ascii	"period\000"
 1696      6F6400
 1697 0176 01       		.byte	0x1
 1698 0177 2B       		.byte	0x2b
 1699 0178 85000000 		.4byte	0x85
 1700 017c 02       		.byte	0x2
 1701 017d 91       		.byte	0x91
 1702 017e 68       		.sleb128 -24
 1703 017f 0A       		.uleb128 0xa
 1704 0180 64757479 		.ascii	"duty_cycle\000"
 1704      5F637963 
 1704      6C6500
 1705 018b 01       		.byte	0x1
 1706 018c 2B       		.byte	0x2b
 1707 018d 53000000 		.4byte	0x53
 1708 0191 02       		.byte	0x2
 1709 0192 91       		.byte	0x91
 1710 0193 64       		.sleb128 -28
 1711 0194 00       		.byte	0x0
 1712 0195 0B       		.uleb128 0xb
 1713 0196 16020000 		.4byte	0x216
 1714 019a 01       		.byte	0x1
 1715 019b 7A617069 		.ascii	"zapisz_wynik\000"
 1715      737A5F77 
ARM GAS  /cygdrive/c/Users/embedded/AppData/Local/Temp/ccSAFOEw.s 			page 38


 1715      796E696B 
 1715      00
 1716 01a8 01       		.byte	0x1
 1717 01a9 45       		.byte	0x45
 1718 01aa 01       		.byte	0x1
 1719 01ab 2C010000 		.4byte	.LFB3
 1720 01af CC010000 		.4byte	.LFE3
 1721 01b3 37000000 		.4byte	.LLST1
 1722 01b7 0A       		.uleb128 0xa
 1723 01b8 6E6F7779 		.ascii	"nowy_rekord\000"
 1723      5F72656B 
 1723      6F726400 
 1724 01c4 01       		.byte	0x1
 1725 01c5 44       		.byte	0x44
 1726 01c6 E2000000 		.4byte	0xe2
 1727 01ca 02       		.byte	0x2
 1728 01cb 91       		.byte	0x91
 1729 01cc 6C       		.sleb128 -20
 1730 01cd 0A       		.uleb128 0xa
 1731 01ce 616B7475 		.ascii	"aktualny_rekord\000"
 1731      616C6E79 
 1731      5F72656B 
 1731      6F726400 
 1732 01de 01       		.byte	0x1
 1733 01df 44       		.byte	0x44
 1734 01e0 E2000000 		.4byte	0xe2
 1735 01e4 02       		.byte	0x2
 1736 01e5 91       		.byte	0x91
 1737 01e6 68       		.sleb128 -24
 1738 01e7 0C       		.uleb128 0xc
 1739 01e8 46010000 		.4byte	.LBB2
 1740 01ec B2010000 		.4byte	.LBE2
 1741 01f0 0D       		.uleb128 0xd
 1742 01f1 77796E69 		.ascii	"wynik\000"
 1742      6B00
 1743 01f7 01       		.byte	0x1
 1744 01f8 48       		.byte	0x48
 1745 01f9 16020000 		.4byte	0x216
 1746 01fd 02       		.byte	0x2
 1747 01fe 91       		.byte	0x91
 1748 01ff 71       		.sleb128 -15
 1749 0200 0D       		.uleb128 0xd
 1750 0201 6B6F645F 		.ascii	"kod_bledu\000"
 1750      626C6564 
 1750      7500
 1751 020b 01       		.byte	0x1
 1752 020c 4B       		.byte	0x4b
 1753 020d BB000000 		.4byte	0xbb
 1754 0211 02       		.byte	0x2
 1755 0212 91       		.byte	0x91
 1756 0213 77       		.sleb128 -9
 1757 0214 00       		.byte	0x0
 1758 0215 00       		.byte	0x0
 1759 0216 07       		.uleb128 0x7
 1760 0217 26020000 		.4byte	0x226
 1761 021b 39010000 		.4byte	0x139
 1762 021f 08       		.uleb128 0x8
ARM GAS  /cygdrive/c/Users/embedded/AppData/Local/Temp/ccSAFOEw.s 			page 39


 1763 0220 32010000 		.4byte	0x132
 1764 0224 05       		.byte	0x5
 1765 0225 00       		.byte	0x0
 1766 0226 0E       		.uleb128 0xe
 1767 0227 6F020000 		.4byte	0x26f
 1768 022b 01       		.byte	0x1
 1769 022c 77637A79 		.ascii	"wczytaj_wynik\000"
 1769      74616A5F 
 1769      77796E69 
 1769      6B00
 1770 023a 01       		.byte	0x1
 1771 023b 60       		.byte	0x60
 1772 023c E2000000 		.4byte	0xe2
 1773 0240 CC010000 		.4byte	.LFB4
 1774 0244 04020000 		.4byte	.LFE4
 1775 0248 6E000000 		.4byte	.LLST2
 1776 024c 0D       		.uleb128 0xd
 1777 024d 74657374 		.ascii	"testBuf\000"
 1777      42756600 
 1778 0255 01       		.byte	0x1
 1779 0256 61       		.byte	0x61
 1780 0257 6F020000 		.4byte	0x26f
 1781 025b 02       		.byte	0x2
 1782 025c 91       		.byte	0x91
 1783 025d 6E       		.sleb128 -18
 1784 025e 0D       		.uleb128 0xd
 1785 025f 77796E69 		.ascii	"wynik\000"
 1785      6B00
 1786 0265 01       		.byte	0x1
 1787 0266 63       		.byte	0x63
 1788 0267 E2000000 		.4byte	0xe2
 1789 026b 02       		.byte	0x2
 1790 026c 91       		.byte	0x91
 1791 026d 68       		.sleb128 -24
 1792 026e 00       		.byte	0x0
 1793 026f 07       		.uleb128 0x7
 1794 0270 7F020000 		.4byte	0x27f
 1795 0274 53000000 		.4byte	0x53
 1796 0278 08       		.uleb128 0x8
 1797 0279 32010000 		.4byte	0x132
 1798 027d 05       		.byte	0x5
 1799 027e 00       		.byte	0x0
 1800 027f 0B       		.uleb128 0xb
 1801 0280 0D030000 		.4byte	0x30d
 1802 0284 01       		.byte	0x1
 1803 0285 67616D65 		.ascii	"game\000"
 1803      00
 1804 028a 01       		.byte	0x1
 1805 028b 73       		.byte	0x73
 1806 028c 01       		.byte	0x1
 1807 028d 04020000 		.4byte	.LFB5
 1808 0291 A0050000 		.4byte	.LFE5
 1809 0295 A5000000 		.4byte	.LLST3
 1810 0299 0A       		.uleb128 0xa
 1811 029a 74727564 		.ascii	"trudnosc\000"
 1811      6E6F7363 
 1811      00
ARM GAS  /cygdrive/c/Users/embedded/AppData/Local/Temp/ccSAFOEw.s 			page 40


 1812 02a3 01       		.byte	0x1
 1813 02a4 73       		.byte	0x73
 1814 02a5 E2000000 		.4byte	0xe2
 1815 02a9 02       		.byte	0x2
 1816 02aa 91       		.byte	0x91
 1817 02ab 5C       		.sleb128 -36
 1818 02ac 0D       		.uleb128 0xd
 1819 02ad 70727A65 		.ascii	"przegrana\000"
 1819      6772616E 
 1819      6100
 1820 02b7 01       		.byte	0x1
 1821 02b8 74       		.byte	0x74
 1822 02b9 12010000 		.4byte	0x112
 1823 02bd 02       		.byte	0x2
 1824 02be 91       		.byte	0x91
 1825 02bf 68       		.sleb128 -24
 1826 02c0 0D       		.uleb128 0xd
 1827 02c1 77796E69 		.ascii	"wynik\000"
 1827      6B00
 1828 02c7 01       		.byte	0x1
 1829 02c8 75       		.byte	0x75
 1830 02c9 E2000000 		.4byte	0xe2
 1831 02cd 02       		.byte	0x2
 1832 02ce 91       		.byte	0x91
 1833 02cf 6C       		.sleb128 -20
 1834 02d0 0D       		.uleb128 0xd
 1835 02d1 72756E64 		.ascii	"runda\000"
 1835      6100
 1836 02d7 01       		.byte	0x1
 1837 02d8 76       		.byte	0x76
 1838 02d9 E2000000 		.4byte	0xe2
 1839 02dd 02       		.byte	0x2
 1840 02de 91       		.byte	0x91
 1841 02df 70       		.sleb128 -16
 1842 02e0 0D       		.uleb128 0xd
 1843 02e1 637A6173 		.ascii	"czas\000"
 1843      00
 1844 02e6 01       		.byte	0x1
 1845 02e7 77       		.byte	0x77
 1846 02e8 E2000000 		.4byte	0xe2
 1847 02ec 02       		.byte	0x2
 1848 02ed 91       		.byte	0x91
 1849 02ee 74       		.sleb128 -12
 1850 02ef 0C       		.uleb128 0xc
 1851 02f0 26050000 		.4byte	.LBB3
 1852 02f4 60050000 		.4byte	.LBE3
 1853 02f8 0D       		.uleb128 0xd
 1854 02f9 706B745F 		.ascii	"pkt_char\000"
 1854      63686172 
 1854      00
 1855 0302 01       		.byte	0x1
 1856 0303 E0       		.byte	0xe0
 1857 0304 0D030000 		.4byte	0x30d
 1858 0308 02       		.byte	0x2
 1859 0309 91       		.byte	0x91
 1860 030a 61       		.sleb128 -31
 1861 030b 00       		.byte	0x0
ARM GAS  /cygdrive/c/Users/embedded/AppData/Local/Temp/ccSAFOEw.s 			page 41


 1862 030c 00       		.byte	0x0
 1863 030d 07       		.uleb128 0x7
 1864 030e 1D030000 		.4byte	0x31d
 1865 0312 39010000 		.4byte	0x139
 1866 0316 08       		.uleb128 0x8
 1867 0317 32010000 		.4byte	0x132
 1868 031b 06       		.byte	0x6
 1869 031c 00       		.byte	0x0
 1870 031d 0F       		.uleb128 0xf
 1871 031e 83030000 		.4byte	0x383
 1872 0322 01       		.byte	0x1
 1873 0323 6D61696E 		.ascii	"main\000"
 1873      00
 1874 0328 01       		.byte	0x1
 1875 0329 EE       		.byte	0xee
 1876 032a 01       		.byte	0x1
 1877 032b E2000000 		.4byte	0xe2
 1878 032f A0050000 		.4byte	.LFB6
 1879 0333 D4070000 		.4byte	.LFE6
 1880 0337 DC000000 		.4byte	.LLST4
 1881 033b 10       		.uleb128 0x10
 1882 033c 72656B6F 		.ascii	"rekord\000"
 1882      726400
 1883 0343 01       		.byte	0x1
 1884 0344 0201     		.2byte	0x102
 1885 0346 E2000000 		.4byte	0xe2
 1886 034a 02       		.byte	0x2
 1887 034b 91       		.byte	0x91
 1888 034c 68       		.sleb128 -24
 1889 034d 10       		.uleb128 0x10
 1890 034e 72656B5F 		.ascii	"rek_char\000"
 1890      63686172 
 1890      00
 1891 0357 01       		.byte	0x1
 1892 0358 0301     		.2byte	0x103
 1893 035a 41010000 		.4byte	0x141
 1894 035e 02       		.byte	0x2
 1895 035f 91       		.byte	0x91
 1896 0360 60       		.sleb128 -32
 1897 0361 10       		.uleb128 0x10
 1898 0362 706F7A69 		.ascii	"poziom\000"
 1898      6F6D00
 1899 0369 01       		.byte	0x1
 1900 036a 1601     		.2byte	0x116
 1901 036c E2000000 		.4byte	0xe2
 1902 0370 02       		.byte	0x2
 1903 0371 91       		.byte	0x91
 1904 0372 6C       		.sleb128 -20
 1905 0373 10       		.uleb128 0x10
 1906 0374 706F7A00 		.ascii	"poz\000"
 1907 0378 01       		.byte	0x1
 1908 0379 1701     		.2byte	0x117
 1909 037b E2000000 		.4byte	0xe2
 1910 037f 02       		.byte	0x2
 1911 0380 91       		.byte	0x91
 1912 0381 70       		.sleb128 -16
 1913 0382 00       		.byte	0x0
ARM GAS  /cygdrive/c/Users/embedded/AppData/Local/Temp/ccSAFOEw.s 			page 42


 1914 0383 11       		.uleb128 0x11
 1915 0384 B9030000 		.4byte	0x3b9
 1916 0388 01       		.byte	0x1
 1917 0389 61707054 		.ascii	"appTick\000"
 1917      69636B00 
 1918 0391 01       		.byte	0x1
 1919 0392 3D01     		.2byte	0x13d
 1920 0394 01       		.byte	0x1
 1921 0395 D4070000 		.4byte	.LFB7
 1922 0399 FC070000 		.4byte	.LFE7
 1923 039d 13010000 		.4byte	.LLST5
 1924 03a1 12       		.uleb128 0x12
 1925 03a2 656C6170 		.ascii	"elapsedTime\000"
 1925      73656454 
 1925      696D6500 
 1926 03ae 01       		.byte	0x1
 1927 03af 3C01     		.2byte	0x13c
 1928 03b1 85000000 		.4byte	0x85
 1929 03b5 02       		.byte	0x2
 1930 03b6 91       		.byte	0x91
 1931 03b7 74       		.sleb128 -12
 1932 03b8 00       		.byte	0x0
 1933 03b9 13       		.uleb128 0x13
 1934 03ba 6C6F736F 		.ascii	"losowosc\000"
 1934      776F7363 
 1934      00
 1935 03c3 03       		.byte	0x3
 1936 03c4 01       		.byte	0x1
 1937 03c5 D0030000 		.4byte	0x3d0
 1938 03c9 01       		.byte	0x1
 1939 03ca 05       		.byte	0x5
 1940 03cb 03       		.byte	0x3
 1941 03cc 00000000 		.4byte	losowosc
 1942 03d0 14       		.uleb128 0x14
 1943 03d1 85000000 		.4byte	0x85
 1944 03d5 13       		.uleb128 0x13
 1945 03d6 6D7300   		.ascii	"ms\000"
 1946 03d9 01       		.byte	0x1
 1947 03da 20       		.byte	0x20
 1948 03db D0030000 		.4byte	0x3d0
 1949 03df 01       		.byte	0x1
 1950 03e0 05       		.byte	0x5
 1951 03e1 03       		.byte	0x3
 1952 03e2 00000000 		.4byte	ms
 1953 03e6 00       		.byte	0x0
 1954              		.section	.debug_abbrev
 1955 0000 01       		.uleb128 0x1
 1956 0001 11       		.uleb128 0x11
 1957 0002 01       		.byte	0x1
 1958 0003 10       		.uleb128 0x10
 1959 0004 06       		.uleb128 0x6
 1960 0005 12       		.uleb128 0x12
 1961 0006 01       		.uleb128 0x1
 1962 0007 11       		.uleb128 0x11
 1963 0008 01       		.uleb128 0x1
 1964 0009 25       		.uleb128 0x25
 1965 000a 08       		.uleb128 0x8
ARM GAS  /cygdrive/c/Users/embedded/AppData/Local/Temp/ccSAFOEw.s 			page 43


 1966 000b 13       		.uleb128 0x13
 1967 000c 0B       		.uleb128 0xb
 1968 000d 03       		.uleb128 0x3
 1969 000e 08       		.uleb128 0x8
 1970 000f 1B       		.uleb128 0x1b
 1971 0010 08       		.uleb128 0x8
 1972 0011 00       		.byte	0x0
 1973 0012 00       		.byte	0x0
 1974 0013 02       		.uleb128 0x2
 1975 0014 16       		.uleb128 0x16
 1976 0015 00       		.byte	0x0
 1977 0016 03       		.uleb128 0x3
 1978 0017 08       		.uleb128 0x8
 1979 0018 3A       		.uleb128 0x3a
 1980 0019 0B       		.uleb128 0xb
 1981 001a 3B       		.uleb128 0x3b
 1982 001b 0B       		.uleb128 0xb
 1983 001c 49       		.uleb128 0x49
 1984 001d 13       		.uleb128 0x13
 1985 001e 00       		.byte	0x0
 1986 001f 00       		.byte	0x0
 1987 0020 03       		.uleb128 0x3
 1988 0021 24       		.uleb128 0x24
 1989 0022 00       		.byte	0x0
 1990 0023 03       		.uleb128 0x3
 1991 0024 08       		.uleb128 0x8
 1992 0025 0B       		.uleb128 0xb
 1993 0026 0B       		.uleb128 0xb
 1994 0027 3E       		.uleb128 0x3e
 1995 0028 0B       		.uleb128 0xb
 1996 0029 00       		.byte	0x0
 1997 002a 00       		.byte	0x0
 1998 002b 04       		.uleb128 0x4
 1999 002c 04       		.uleb128 0x4
 2000 002d 01       		.byte	0x1
 2001 002e 01       		.uleb128 0x1
 2002 002f 13       		.uleb128 0x13
 2003 0030 0B       		.uleb128 0xb
 2004 0031 0B       		.uleb128 0xb
 2005 0032 3A       		.uleb128 0x3a
 2006 0033 0B       		.uleb128 0xb
 2007 0034 3B       		.uleb128 0x3b
 2008 0035 0B       		.uleb128 0xb
 2009 0036 00       		.byte	0x0
 2010 0037 00       		.byte	0x0
 2011 0038 05       		.uleb128 0x5
 2012 0039 28       		.uleb128 0x28
 2013 003a 00       		.byte	0x0
 2014 003b 03       		.uleb128 0x3
 2015 003c 08       		.uleb128 0x8
 2016 003d 1C       		.uleb128 0x1c
 2017 003e 0D       		.uleb128 0xd
 2018 003f 00       		.byte	0x0
 2019 0040 00       		.byte	0x0
 2020 0041 06       		.uleb128 0x6
 2021 0042 24       		.uleb128 0x24
 2022 0043 00       		.byte	0x0
ARM GAS  /cygdrive/c/Users/embedded/AppData/Local/Temp/ccSAFOEw.s 			page 44


 2023 0044 03       		.uleb128 0x3
 2024 0045 0E       		.uleb128 0xe
 2025 0046 0B       		.uleb128 0xb
 2026 0047 0B       		.uleb128 0xb
 2027 0048 3E       		.uleb128 0x3e
 2028 0049 0B       		.uleb128 0xb
 2029 004a 00       		.byte	0x0
 2030 004b 00       		.byte	0x0
 2031 004c 07       		.uleb128 0x7
 2032 004d 01       		.uleb128 0x1
 2033 004e 01       		.byte	0x1
 2034 004f 01       		.uleb128 0x1
 2035 0050 13       		.uleb128 0x13
 2036 0051 49       		.uleb128 0x49
 2037 0052 13       		.uleb128 0x13
 2038 0053 00       		.byte	0x0
 2039 0054 00       		.byte	0x0
 2040 0055 08       		.uleb128 0x8
 2041 0056 21       		.uleb128 0x21
 2042 0057 00       		.byte	0x0
 2043 0058 49       		.uleb128 0x49
 2044 0059 13       		.uleb128 0x13
 2045 005a 2F       		.uleb128 0x2f
 2046 005b 0B       		.uleb128 0xb
 2047 005c 00       		.byte	0x0
 2048 005d 00       		.byte	0x0
 2049 005e 09       		.uleb128 0x9
 2050 005f 2E       		.uleb128 0x2e
 2051 0060 01       		.byte	0x1
 2052 0061 01       		.uleb128 0x1
 2053 0062 13       		.uleb128 0x13
 2054 0063 03       		.uleb128 0x3
 2055 0064 08       		.uleb128 0x8
 2056 0065 3A       		.uleb128 0x3a
 2057 0066 0B       		.uleb128 0xb
 2058 0067 3B       		.uleb128 0x3b
 2059 0068 0B       		.uleb128 0xb
 2060 0069 27       		.uleb128 0x27
 2061 006a 0C       		.uleb128 0xc
 2062 006b 11       		.uleb128 0x11
 2063 006c 01       		.uleb128 0x1
 2064 006d 12       		.uleb128 0x12
 2065 006e 01       		.uleb128 0x1
 2066 006f 40       		.uleb128 0x40
 2067 0070 06       		.uleb128 0x6
 2068 0071 00       		.byte	0x0
 2069 0072 00       		.byte	0x0
 2070 0073 0A       		.uleb128 0xa
 2071 0074 05       		.uleb128 0x5
 2072 0075 00       		.byte	0x0
 2073 0076 03       		.uleb128 0x3
 2074 0077 08       		.uleb128 0x8
 2075 0078 3A       		.uleb128 0x3a
 2076 0079 0B       		.uleb128 0xb
 2077 007a 3B       		.uleb128 0x3b
 2078 007b 0B       		.uleb128 0xb
 2079 007c 49       		.uleb128 0x49
ARM GAS  /cygdrive/c/Users/embedded/AppData/Local/Temp/ccSAFOEw.s 			page 45


 2080 007d 13       		.uleb128 0x13
 2081 007e 02       		.uleb128 0x2
 2082 007f 0A       		.uleb128 0xa
 2083 0080 00       		.byte	0x0
 2084 0081 00       		.byte	0x0
 2085 0082 0B       		.uleb128 0xb
 2086 0083 2E       		.uleb128 0x2e
 2087 0084 01       		.byte	0x1
 2088 0085 01       		.uleb128 0x1
 2089 0086 13       		.uleb128 0x13
 2090 0087 3F       		.uleb128 0x3f
 2091 0088 0C       		.uleb128 0xc
 2092 0089 03       		.uleb128 0x3
 2093 008a 08       		.uleb128 0x8
 2094 008b 3A       		.uleb128 0x3a
 2095 008c 0B       		.uleb128 0xb
 2096 008d 3B       		.uleb128 0x3b
 2097 008e 0B       		.uleb128 0xb
 2098 008f 27       		.uleb128 0x27
 2099 0090 0C       		.uleb128 0xc
 2100 0091 11       		.uleb128 0x11
 2101 0092 01       		.uleb128 0x1
 2102 0093 12       		.uleb128 0x12
 2103 0094 01       		.uleb128 0x1
 2104 0095 40       		.uleb128 0x40
 2105 0096 06       		.uleb128 0x6
 2106 0097 00       		.byte	0x0
 2107 0098 00       		.byte	0x0
 2108 0099 0C       		.uleb128 0xc
 2109 009a 0B       		.uleb128 0xb
 2110 009b 01       		.byte	0x1
 2111 009c 11       		.uleb128 0x11
 2112 009d 01       		.uleb128 0x1
 2113 009e 12       		.uleb128 0x12
 2114 009f 01       		.uleb128 0x1
 2115 00a0 00       		.byte	0x0
 2116 00a1 00       		.byte	0x0
 2117 00a2 0D       		.uleb128 0xd
 2118 00a3 34       		.uleb128 0x34
 2119 00a4 00       		.byte	0x0
 2120 00a5 03       		.uleb128 0x3
 2121 00a6 08       		.uleb128 0x8
 2122 00a7 3A       		.uleb128 0x3a
 2123 00a8 0B       		.uleb128 0xb
 2124 00a9 3B       		.uleb128 0x3b
 2125 00aa 0B       		.uleb128 0xb
 2126 00ab 49       		.uleb128 0x49
 2127 00ac 13       		.uleb128 0x13
 2128 00ad 02       		.uleb128 0x2
 2129 00ae 0A       		.uleb128 0xa
 2130 00af 00       		.byte	0x0
 2131 00b0 00       		.byte	0x0
 2132 00b1 0E       		.uleb128 0xe
 2133 00b2 2E       		.uleb128 0x2e
 2134 00b3 01       		.byte	0x1
 2135 00b4 01       		.uleb128 0x1
 2136 00b5 13       		.uleb128 0x13
ARM GAS  /cygdrive/c/Users/embedded/AppData/Local/Temp/ccSAFOEw.s 			page 46


 2137 00b6 3F       		.uleb128 0x3f
 2138 00b7 0C       		.uleb128 0xc
 2139 00b8 03       		.uleb128 0x3
 2140 00b9 08       		.uleb128 0x8
 2141 00ba 3A       		.uleb128 0x3a
 2142 00bb 0B       		.uleb128 0xb
 2143 00bc 3B       		.uleb128 0x3b
 2144 00bd 0B       		.uleb128 0xb
 2145 00be 49       		.uleb128 0x49
 2146 00bf 13       		.uleb128 0x13
 2147 00c0 11       		.uleb128 0x11
 2148 00c1 01       		.uleb128 0x1
 2149 00c2 12       		.uleb128 0x12
 2150 00c3 01       		.uleb128 0x1
 2151 00c4 40       		.uleb128 0x40
 2152 00c5 06       		.uleb128 0x6
 2153 00c6 00       		.byte	0x0
 2154 00c7 00       		.byte	0x0
 2155 00c8 0F       		.uleb128 0xf
 2156 00c9 2E       		.uleb128 0x2e
 2157 00ca 01       		.byte	0x1
 2158 00cb 01       		.uleb128 0x1
 2159 00cc 13       		.uleb128 0x13
 2160 00cd 3F       		.uleb128 0x3f
 2161 00ce 0C       		.uleb128 0xc
 2162 00cf 03       		.uleb128 0x3
 2163 00d0 08       		.uleb128 0x8
 2164 00d1 3A       		.uleb128 0x3a
 2165 00d2 0B       		.uleb128 0xb
 2166 00d3 3B       		.uleb128 0x3b
 2167 00d4 0B       		.uleb128 0xb
 2168 00d5 27       		.uleb128 0x27
 2169 00d6 0C       		.uleb128 0xc
 2170 00d7 49       		.uleb128 0x49
 2171 00d8 13       		.uleb128 0x13
 2172 00d9 11       		.uleb128 0x11
 2173 00da 01       		.uleb128 0x1
 2174 00db 12       		.uleb128 0x12
 2175 00dc 01       		.uleb128 0x1
 2176 00dd 40       		.uleb128 0x40
 2177 00de 06       		.uleb128 0x6
 2178 00df 00       		.byte	0x0
 2179 00e0 00       		.byte	0x0
 2180 00e1 10       		.uleb128 0x10
 2181 00e2 34       		.uleb128 0x34
 2182 00e3 00       		.byte	0x0
 2183 00e4 03       		.uleb128 0x3
 2184 00e5 08       		.uleb128 0x8
 2185 00e6 3A       		.uleb128 0x3a
 2186 00e7 0B       		.uleb128 0xb
 2187 00e8 3B       		.uleb128 0x3b
 2188 00e9 05       		.uleb128 0x5
 2189 00ea 49       		.uleb128 0x49
 2190 00eb 13       		.uleb128 0x13
 2191 00ec 02       		.uleb128 0x2
 2192 00ed 0A       		.uleb128 0xa
 2193 00ee 00       		.byte	0x0
ARM GAS  /cygdrive/c/Users/embedded/AppData/Local/Temp/ccSAFOEw.s 			page 47


 2194 00ef 00       		.byte	0x0
 2195 00f0 11       		.uleb128 0x11
 2196 00f1 2E       		.uleb128 0x2e
 2197 00f2 01       		.byte	0x1
 2198 00f3 01       		.uleb128 0x1
 2199 00f4 13       		.uleb128 0x13
 2200 00f5 3F       		.uleb128 0x3f
 2201 00f6 0C       		.uleb128 0xc
 2202 00f7 03       		.uleb128 0x3
 2203 00f8 08       		.uleb128 0x8
 2204 00f9 3A       		.uleb128 0x3a
 2205 00fa 0B       		.uleb128 0xb
 2206 00fb 3B       		.uleb128 0x3b
 2207 00fc 05       		.uleb128 0x5
 2208 00fd 27       		.uleb128 0x27
 2209 00fe 0C       		.uleb128 0xc
 2210 00ff 11       		.uleb128 0x11
 2211 0100 01       		.uleb128 0x1
 2212 0101 12       		.uleb128 0x12
 2213 0102 01       		.uleb128 0x1
 2214 0103 40       		.uleb128 0x40
 2215 0104 06       		.uleb128 0x6
 2216 0105 00       		.byte	0x0
 2217 0106 00       		.byte	0x0
 2218 0107 12       		.uleb128 0x12
 2219 0108 05       		.uleb128 0x5
 2220 0109 00       		.byte	0x0
 2221 010a 03       		.uleb128 0x3
 2222 010b 08       		.uleb128 0x8
 2223 010c 3A       		.uleb128 0x3a
 2224 010d 0B       		.uleb128 0xb
 2225 010e 3B       		.uleb128 0x3b
 2226 010f 05       		.uleb128 0x5
 2227 0110 49       		.uleb128 0x49
 2228 0111 13       		.uleb128 0x13
 2229 0112 02       		.uleb128 0x2
 2230 0113 0A       		.uleb128 0xa
 2231 0114 00       		.byte	0x0
 2232 0115 00       		.byte	0x0
 2233 0116 13       		.uleb128 0x13
 2234 0117 34       		.uleb128 0x34
 2235 0118 00       		.byte	0x0
 2236 0119 03       		.uleb128 0x3
 2237 011a 08       		.uleb128 0x8
 2238 011b 3A       		.uleb128 0x3a
 2239 011c 0B       		.uleb128 0xb
 2240 011d 3B       		.uleb128 0x3b
 2241 011e 0B       		.uleb128 0xb
 2242 011f 49       		.uleb128 0x49
 2243 0120 13       		.uleb128 0x13
 2244 0121 3F       		.uleb128 0x3f
 2245 0122 0C       		.uleb128 0xc
 2246 0123 02       		.uleb128 0x2
 2247 0124 0A       		.uleb128 0xa
 2248 0125 00       		.byte	0x0
 2249 0126 00       		.byte	0x0
 2250 0127 14       		.uleb128 0x14
ARM GAS  /cygdrive/c/Users/embedded/AppData/Local/Temp/ccSAFOEw.s 			page 48


 2251 0128 35       		.uleb128 0x35
 2252 0129 00       		.byte	0x0
 2253 012a 49       		.uleb128 0x49
 2254 012b 13       		.uleb128 0x13
 2255 012c 00       		.byte	0x0
 2256 012d 00       		.byte	0x0
 2257 012e 00       		.byte	0x0
 2258              		.section	.debug_pubnames,"",%progbits
 2259 0000 63000000 		.4byte	0x63
 2260 0004 0200     		.2byte	0x2
 2261 0006 00000000 		.4byte	.Ldebug_info0
 2262 000a E7030000 		.4byte	0x3e7
 2263 000e 95010000 		.4byte	0x195
 2264 0012 7A617069 		.ascii	"zapisz_wynik\000"
 2264      737A5F77 
 2264      796E696B 
 2264      00
 2265 001f 26020000 		.4byte	0x226
 2266 0023 77637A79 		.ascii	"wczytaj_wynik\000"
 2266      74616A5F 
 2266      77796E69 
 2266      6B00
 2267 0031 7F020000 		.4byte	0x27f
 2268 0035 67616D65 		.ascii	"game\000"
 2268      00
 2269 003a 1D030000 		.4byte	0x31d
 2270 003e 6D61696E 		.ascii	"main\000"
 2270      00
 2271 0043 83030000 		.4byte	0x383
 2272 0047 61707054 		.ascii	"appTick\000"
 2272      69636B00 
 2273 004f B9030000 		.4byte	0x3b9
 2274 0053 6C6F736F 		.ascii	"losowosc\000"
 2274      776F7363 
 2274      00
 2275 005c D5030000 		.4byte	0x3d5
 2276 0060 6D7300   		.ascii	"ms\000"
 2277 0063 00000000 		.4byte	0x0
 2278              		.section	.debug_aranges,"",%progbits
 2279 0000 1C000000 		.4byte	0x1c
 2280 0004 0200     		.2byte	0x2
 2281 0006 00000000 		.4byte	.Ldebug_info0
 2282 000a 04       		.byte	0x4
 2283 000b 00       		.byte	0x0
 2284 000c 0000     		.2byte	0x0
 2285 000e 0000     		.2byte	0x0
 2286 0010 00000000 		.4byte	.Ltext0
 2287 0014 FC070000 		.4byte	.Letext0-.Ltext0
 2288 0018 00000000 		.4byte	0x0
 2289 001c 00000000 		.4byte	0x0
 2290              		.section	.debug_str,"",%progbits
 2291              	.LASF0:
 2292 0000 6C6F6E67 		.ascii	"long unsigned int\000"
 2292      20756E73 
 2292      69676E65 
 2292      6420696E 
 2292      7400
ARM GAS  /cygdrive/c/Users/embedded/AppData/Local/Temp/ccSAFOEw.s 			page 49


 2293              		.ident	"GCC: (GNU) 4.1.1"
ARM GAS  /cygdrive/c/Users/embedded/AppData/Local/Temp/ccSAFOEw.s 			page 50


DEFINED SYMBOLS
                            *ABS*:00000000 main.c
/cygdrive/c/Users/embedded/AppData/Local/Temp/ccSAFOEw.s:1      .text:00000000 $t
/cygdrive/c/Users/embedded/AppData/Local/Temp/ccSAFOEw.s:17     .text:00000000 init_irq
/cygdrive/c/Users/embedded/AppData/Local/Temp/ccSAFOEw.s:161    .text:000000f8 $d
/cygdrive/c/Users/embedded/AppData/Local/Temp/ccSAFOEw.s:192    .text:0000012c zapisz_wynik
/cygdrive/c/Users/embedded/AppData/Local/Temp/ccSAFOEw.s:189    .text:0000012c $t
/cygdrive/c/Users/embedded/AppData/Local/Temp/ccSAFOEw.s:281    .text:000001bc $d
/cygdrive/c/Users/embedded/AppData/Local/Temp/ccSAFOEw.s:292    .text:000001cc wczytaj_wynik
/cygdrive/c/Users/embedded/AppData/Local/Temp/ccSAFOEw.s:289    .text:000001cc $t
/cygdrive/c/Users/embedded/AppData/Local/Temp/ccSAFOEw.s:329    .text:00000200 $d
/cygdrive/c/Users/embedded/AppData/Local/Temp/ccSAFOEw.s:342    .text:00000204 game
/cygdrive/c/Users/embedded/AppData/Local/Temp/ccSAFOEw.s:339    .text:00000204 $t
/cygdrive/c/Users/embedded/AppData/Local/Temp/ccSAFOEw.s:889    .text:0000056c $d
                            *COM*:00000004 losowosc
/cygdrive/c/Users/embedded/AppData/Local/Temp/ccSAFOEw.s:939    .text:000005a0 main
/cygdrive/c/Users/embedded/AppData/Local/Temp/ccSAFOEw.s:936    .text:000005a0 $t
/cygdrive/c/Users/embedded/AppData/Local/Temp/ccSAFOEw.s:1224   .text:0000079c $d
/cygdrive/c/Users/embedded/AppData/Local/Temp/ccSAFOEw.s:1245   .text:000007d4 appTick
/cygdrive/c/Users/embedded/AppData/Local/Temp/ccSAFOEw.s:1242   .text:000007d4 $t
/cygdrive/c/Users/embedded/AppData/Local/Temp/ccSAFOEw.s:1274   .text:000007f8 $d
                            *COM*:00000004 ms

UNDEFINED SYMBOLS
__udivdi3
__muldi3
IRQ_Test
sprintf
eepromWrite
lcdGotoxy
lcdPuts
mdelay
eepromPageRead
sscanf
lcdClrscr
__divsi3
printf_init
i2cInit
lcdInit
initAdc
lcdColor
getAnalogueInput
